$E000:    32            add r0, r2
$E001:    30            add r0, r0
$E002:    30            add r0, r0
$E003:    30            add r0, r0
$E004:    0A            mov r0, sp
$E005:    00            trap
$E006:    00            trap
$E007:    00            trap
$E008:    00            trap
$E009:    00            trap
$E00A:    00            trap
$E00B:    00            trap
$E00C:    00            trap
$E00D:    00            trap
$E00E:    00            trap
$E00F:    00            trap
$E010:    00            trap
$E011:    00            trap
$E012:    00            trap
$E013:    00            trap
$E014:    00            trap
$E015:    00            trap
$E016:    00            trap
$E017:    00            trap
$E018:    00            trap
$E019:    00            trap
$E01A:    00            trap
$E01B:    00            trap
$E01C:    00            trap
$E01D:    00            trap
$E01E:    00            trap
$E01F:    00            trap
$E020:    00            trap
$E021:    00            trap
$E022:    00            trap
$E023:    00            trap
$E024:    00            trap
$E025:    00            trap
$E026:    00            trap
$E027:    00            trap
$E028:    00            trap
$E029:    00            trap
$E02A:    00            trap
$E02B:    00            trap
$E02C:    00            trap
$E02D:    00            trap
$E02E:    00            trap
$E02F:    00            trap
$E030:    00            trap
$E031:    00            trap
$E032:    00            trap
$E033:    00            trap
$E034:    00            trap
$E035:    00            trap
$E036:    00            trap
$E037:    00            trap
$E038:    00            trap
$E039:    00            trap
$E03A:    00            trap
$E03B:    00            trap
$E03C:    00            trap
$E03D:    00            trap
$E03E:    00            trap
$E03F:    00            trap
$E040:    00            trap
$E041:    00            trap
$E042:    00            trap
$E043:    00            trap
$E044:    00            trap
$E045:    00            trap
$E046:    00            trap
$E047:    00            trap
$E048:    00            trap
$E049:    00            trap
$E04A:    00            trap
$E04B:    00            trap
$E04C:    00            trap
$E04D:    00            trap
$E04E:    00            trap
$E04F:    00            trap
$E050:    00            trap
$E051:    00            trap
$E052:    00            trap
$E053:    00            trap
$E054:    00            trap
$E055:    00            trap
$E056:    00            trap
$E057:    00            trap
$E058:    00            trap
$E059:    00            trap
$E05A:    00            trap
$E05B:    00            trap
$E05C:    00            trap
$E05D:    00            trap
$E05E:    00            trap
$E05F:    00            trap
$E060:    00            trap
$E061:    00            trap
$E062:    00            trap
$E063:    00            trap
$E064:    00            trap
$E065:    00            trap
$E066:    00            trap
$E067:    00            trap
$E068:    00            trap
$E069:    00            trap
$E06A:    00            trap
$E06B:    00            trap
$E06C:    00            trap
$E06D:    00            trap
$E06E:    00            trap
$E06F:    00            trap
$E070:    00            trap
$E071:    00            trap
$E072:    00            trap
$E073:    00            trap
$E074:    00            trap
$E075:    00            trap
$E076:    00            trap
$E077:    00            trap
$E078:    00            trap
$E079:    00            trap
$E07A:    00            trap
$E07B:    00            trap
$E07C:    00            trap
$E07D:    00            trap
$E07E:    00            trap
$E07F:    00            trap
$E080:    00            trap
$E081:    00            trap
$E082:    00            trap
$E083:    00            trap
$E084:    00            trap
$E085:    00            trap
$E086:    00            trap
$E087:    00            trap
$E088:    00            trap
$E089:    00            trap
$E08A:    00            trap
$E08B:    00            trap
$E08C:    00            trap
$E08D:    00            trap
$E08E:    00            trap
$E08F:    00            trap
$E090:    00            trap
$E091:    00            trap
$E092:    00            trap
$E093:    00            trap
$E094:    00            trap
$E095:    00            trap
$E096:    00            trap
$E097:    00            trap
$E098:    00            trap
$E099:    00            trap
$E09A:    00            trap
$E09B:    00            trap
$E09C:    00            trap
$E09D:    00            trap
$E09E:    00            trap
$E09F:    00            trap
$E0A0:    00            trap
$E0A1:    00            trap
$E0A2:    00            trap
$E0A3:    00            trap
$E0A4:    00            trap
$E0A5:    00            trap
$E0A6:    00            trap
$E0A7:    00            trap
$E0A8:    00            trap
$E0A9:    00            trap
$E0AA:    00            trap
$E0AB:    00            trap
$E0AC:    00            trap
$E0AD:    00            trap
$E0AE:    00            trap
$E0AF:    00            trap
$E0B0:    00            trap
$E0B1:    00            trap
$E0B2:    00            trap
$E0B3:    00            trap
$E0B4:    00            trap
$E0B5:    00            trap
$E0B6:    00            trap
$E0B7:    00            trap
$E0B8:    00            trap
$E0B9:    00            trap
$E0BA:    00            trap
$E0BB:    00            trap
$E0BC:    00            trap
$E0BD:    00            trap
$E0BE:    00            trap
$E0BF:    00            trap
$E0C0:    00            trap
$E0C1:    00            trap
$E0C2:    00            trap
$E0C3:    00            trap
$E0C4:    00            trap
$E0C5:    00            trap
$E0C6:    00            trap
$E0C7:    00            trap
$E0C8:    00            trap
$E0C9:    00            trap
$E0CA:    00            trap
$E0CB:    00            trap
$E0CC:    00            trap
$E0CD:    00            trap
$E0CE:    00            trap
$E0CF:    00            trap
$E0D0:    00            trap
$E0D1:    00            trap
$E0D2:    00            trap
$E0D3:    00            trap
$E0D4:    00            trap
$E0D5:    00            trap
$E0D6:    00            trap
$E0D7:    00            trap
$E0D8:    00            trap
$E0D9:    00            trap
$E0DA:    00            trap
$E0DB:    00            trap
$E0DC:    00            trap
$E0DD:    00            trap
$E0DE:    00            trap
$E0DF:    00            trap
$E0E0:    00            trap
$E0E1:    00            trap
$E0E2:    00            trap
$E0E3:    00            trap
$E0E4:    00            trap
$E0E5:    00            trap
$E0E6:    00            trap
$E0E7:    00            trap
$E0E8:    00            trap
$E0E9:    00            trap
$E0EA:    00            trap
$E0EB:    00            trap
$E0EC:    00            trap
$E0ED:    00            trap
$E0EE:    00            trap
$E0EF:    00            trap
$E0F0:    00            trap
$E0F1:    00            trap
$E0F2:    00            trap
$E0F3:    00            trap
$E0F4:    00            trap
$E0F5:    00            trap
$E0F6:    00            trap
$E0F7:    00            trap
$E0F8:    00            trap
$E0F9:    00            trap
$E0FA:    00            trap
$E0FB:    00            trap
$E0FC:    00            trap
$E0FD:    00            trap
$E0FE:    00            trap
$E0FF:    00            trap
$E100:    00            trap
$E101:    00            trap
$E102:    00            trap
$E103:    00            trap
$E104:    00            trap
$E105:    00            trap
$E106:    00            trap
$E107:    00            trap
$E108:    00            trap
$E109:    00            trap
$E10A:    00            trap
$E10B:    00            trap
$E10C:    00            trap
$E10D:    00            trap
$E10E:    00            trap
$E10F:    00            trap
$E110:    00            trap
$E111:    00            trap
$E112:    00            trap
$E113:    00            trap
$E114:    00            trap
$E115:    00            trap
$E116:    00            trap
$E117:    00            trap
$E118:    00            trap
$E119:    00            trap
$E11A:    00            trap
$E11B:    00            trap
$E11C:    00            trap
$E11D:    00            trap
$E11E:    00            trap
$E11F:    00            trap
$E120:    00            trap
$E121:    00            trap
$E122:    00            trap
$E123:    00            trap
$E124:    00            trap
$E125:    00            trap
$E126:    00            trap
$E127:    00            trap
$E128:    00            trap
$E129:    00            trap
$E12A:    00            trap
$E12B:    00            trap
$E12C:    00            trap
$E12D:    00            trap
$E12E:    00            trap
$E12F:    00            trap
$E130:    00            trap
$E131:    00            trap
$E132:    00            trap
$E133:    00            trap
$E134:    00            trap
$E135:    00            trap
$E136:    00            trap
$E137:    00            trap
$E138:    00            trap
$E139:    00            trap
$E13A:    00            trap
$E13B:    00            trap
$E13C:    00            trap
$E13D:    00            trap
$E13E:    00            trap
$E13F:    00            trap
$E140:    00            trap
$E141:    00            trap
$E142:    00            trap
$E143:    00            trap
$E144:    00            trap
$E145:    00            trap
$E146:    00            trap
$E147:    00            trap
$E148:    00            trap
$E149:    00            trap
$E14A:    00            trap
$E14B:    00            trap
$E14C:    00            trap
$E14D:    00            trap
$E14E:    00            trap
$E14F:    00            trap
$E150:    00            trap
$E151:    00            trap
$E152:    00            trap
$E153:    00            trap
$E154:    00            trap
$E155:    00            trap
$E156:    00            trap
$E157:    00            trap
$E158:    00            trap
$E159:    00            trap
$E15A:    00            trap
$E15B:    00            trap
$E15C:    00            trap
$E15D:    00            trap
$E15E:    00            trap
$E15F:    00            trap
$E160:    00            trap
$E161:    00            trap
$E162:    00            trap
$E163:    00            trap
$E164:    00            trap
$E165:    00            trap
$E166:    00            trap
$E167:    00            trap
$E168:    00            trap
$E169:    00            trap
$E16A:    00            trap
$E16B:    00            trap
$E16C:    00            trap
$E16D:    00            trap
$E16E:    00            trap
$E16F:    00            trap
$E170:    00            trap
$E171:    00            trap
$E172:    00            trap
$E173:    00            trap
$E174:    00            trap
$E175:    00            trap
$E176:    00            trap
$E177:    00            trap
$E178:    00            trap
$E179:    00            trap
$E17A:    00            trap
$E17B:    00            trap
$E17C:    00            trap
$E17D:    00            trap
$E17E:    00            trap
$E17F:    00            trap
$E180:    00            trap
$E181:    00            trap
$E182:    00            trap
$E183:    00            trap
$E184:    00            trap
$E185:    00            trap
$E186:    00            trap
$E187:    00            trap
$E188:    00            trap
$E189:    00            trap
$E18A:    00            trap
$E18B:    00            trap
$E18C:    00            trap
$E18D:    00            trap
$E18E:    00            trap
$E18F:    00            trap
$E190:    00            trap
$E191:    00            trap
$E192:    00            trap
$E193:    00            trap
$E194:    00            trap
$E195:    00            trap
$E196:    00            trap
$E197:    00            trap
$E198:    00            trap
$E199:    00            trap
$E19A:    00            trap
$E19B:    00            trap
$E19C:    00            trap
$E19D:    00            trap
$E19E:    00            trap
$E19F:    00            trap
$E1A0:    00            trap
$E1A1:    00            trap
$E1A2:    00            trap
$E1A3:    00            trap
$E1A4:    00            trap
$E1A5:    00            trap
$E1A6:    00            trap
$E1A7:    00            trap
$E1A8:    00            trap
$E1A9:    00            trap
$E1AA:    00            trap
$E1AB:    00            trap
$E1AC:    00            trap
$E1AD:    00            trap
$E1AE:    00            trap
$E1AF:    00            trap
$E1B0:    00            trap
$E1B1:    00            trap
$E1B2:    00            trap
$E1B3:    00            trap
$E1B4:    00            trap
$E1B5:    00            trap
$E1B6:    00            trap
$E1B7:    00            trap
$E1B8:    00            trap
$E1B9:    00            trap
$E1BA:    00            trap
$E1BB:    00            trap
$E1BC:    00            trap
$E1BD:    00            trap
$E1BE:    00            trap
$E1BF:    00            trap
$E1C0:    00            trap
$E1C1:    00            trap
$E1C2:    00            trap
$E1C3:    00            trap
$E1C4:    00            trap
$E1C5:    00            trap
$E1C6:    00            trap
$E1C7:    00            trap
$E1C8:    00            trap
$E1C9:    00            trap
$E1CA:    00            trap
$E1CB:    00            trap
$E1CC:    00            trap
$E1CD:    00            trap
$E1CE:    00            trap
$E1CF:    00            trap
$E1D0:    00            trap
$E1D1:    00            trap
$E1D2:    00            trap
$E1D3:    00            trap
$E1D4:    00            trap
$E1D5:    00            trap
$E1D6:    00            trap
$E1D7:    00            trap
$E1D8:    00            trap
$E1D9:    00            trap
$E1DA:    00            trap
$E1DB:    00            trap
$E1DC:    00            trap
$E1DD:    00            trap
$E1DE:    00            trap
$E1DF:    00            trap
$E1E0:    00            trap
$E1E1:    00            trap
$E1E2:    00            trap
$E1E3:    00            trap
$E1E4:    00            trap
$E1E5:    00            trap
$E1E6:    00            trap
$E1E7:    00            trap
$E1E8:    00            trap
$E1E9:    00            trap
$E1EA:    00            trap
$E1EB:    00            trap
$E1EC:    00            trap
$E1ED:    00            trap
$E1EE:    00            trap
$E1EF:    00            trap
$E1F0:    00            trap
$E1F1:    00            trap
$E1F2:    00            trap
$E1F3:    00            trap
$E1F4:    00            trap
$E1F5:    00            trap
$E1F6:    00            trap
$E1F7:    00            trap
$E1F8:    00            trap
$E1F9:    00            trap
$E1FA:    00            trap
$E1FB:    00            trap
$E1FC:    00            trap
$E1FD:    00            trap
$E1FE:    00            trap
$E1FF:    00            trap
$E200:    00            trap
$E201:    00            trap
$E202:    00            trap
$E203:    00            trap
$E204:    00            trap
$E205:    00            trap
$E206:    00            trap
$E207:    00            trap
$E208:    00            trap
$E209:    00            trap
$E20A:    00            trap
$E20B:    00            trap
$E20C:    00            trap
$E20D:    00            trap
$E20E:    00            trap
$E20F:    00            trap
$E210:    00            trap
$E211:    00            trap
$E212:    00            trap
$E213:    00            trap
$E214:    00            trap
$E215:    00            trap
$E216:    00            trap
$E217:    00            trap
$E218:    00            trap
$E219:    00            trap
$E21A:    00            trap
$E21B:    00            trap
$E21C:    00            trap
$E21D:    00            trap
$E21E:    00            trap
$E21F:    00            trap
$E220:    00            trap
$E221:    00            trap
$E222:    00            trap
$E223:    00            trap
$E224:    00            trap
$E225:    00            trap
$E226:    00            trap
$E227:    00            trap
$E228:    00            trap
$E229:    00            trap
$E22A:    00            trap
$E22B:    00            trap
$E22C:    00            trap
$E22D:    00            trap
$E22E:    00            trap
$E22F:    00            trap
$E230:    00            trap
$E231:    00            trap
$E232:    00            trap
$E233:    00            trap
$E234:    00            trap
$E235:    00            trap
$E236:    00            trap
$E237:    00            trap
$E238:    00            trap
$E239:    00            trap
$E23A:    00            trap
$E23B:    00            trap
$E23C:    00            trap
$E23D:    00            trap
$E23E:    00            trap
$E23F:    00            trap
$E240:    00            trap
$E241:    00            trap
$E242:    00            trap
$E243:    00            trap
$E244:    00            trap
$E245:    00            trap
$E246:    00            trap
$E247:    00            trap
$E248:    00            trap
$E249:    00            trap
$E24A:    00            trap
$E24B:    00            trap
$E24C:    00            trap
$E24D:    00            trap
$E24E:    00            trap
$E24F:    00            trap
$E250:    00            trap
$E251:    00            trap
$E252:    00            trap
$E253:    00            trap
$E254:    00            trap
$E255:    00            trap
$E256:    00            trap
$E257:    00            trap
$E258:    00            trap
$E259:    00            trap
$E25A:    00            trap
$E25B:    00            trap
$E25C:    00            trap
$E25D:    00            trap
$E25E:    00            trap
$E25F:    00            trap
$E260:    00            trap
$E261:    00            trap
$E262:    00            trap
$E263:    00            trap
$E264:    00            trap
$E265:    00            trap
$E266:    00            trap
$E267:    00            trap
$E268:    00            trap
$E269:    00            trap
$E26A:    00            trap
$E26B:    00            trap
$E26C:    00            trap
$E26D:    00            trap
$E26E:    00            trap
$E26F:    00            trap
$E270:    00            trap
$E271:    00            trap
$E272:    00            trap
$E273:    00            trap
$E274:    00            trap
$E275:    00            trap
$E276:    00            trap
$E277:    00            trap
$E278:    00            trap
$E279:    00            trap
$E27A:    00            trap
$E27B:    00            trap
$E27C:    00            trap
$E27D:    00            trap
$E27E:    00            trap
$E27F:    00            trap
$E280:    00            trap
$E281:    00            trap
$E282:    00            trap
$E283:    00            trap
$E284:    00            trap
$E285:    00            trap
$E286:    00            trap
$E287:    00            trap
$E288:    00            trap
$E289:    00            trap
$E28A:    00            trap
$E28B:    00            trap
$E28C:    00            trap
$E28D:    00            trap
$E28E:    00            trap
$E28F:    00            trap
$E290:    00            trap
$E291:    00            trap
$E292:    00            trap
$E293:    00            trap
$E294:    00            trap
$E295:    00            trap
$E296:    00            trap
$E297:    00            trap
$E298:    00            trap
$E299:    00            trap
$E29A:    00            trap
$E29B:    00            trap
$E29C:    00            trap
$E29D:    00            trap
$E29E:    00            trap
$E29F:    00            trap
$E2A0:    00            trap
$E2A1:    00            trap
$E2A2:    00            trap
$E2A3:    00            trap
$E2A4:    00            trap
$E2A5:    00            trap
$E2A6:    00            trap
$E2A7:    00            trap
$E2A8:    00            trap
$E2A9:    00            trap
$E2AA:    00            trap
$E2AB:    00            trap
$E2AC:    00            trap
$E2AD:    00            trap
$E2AE:    00            trap
$E2AF:    00            trap
$E2B0:    00            trap
$E2B1:    00            trap
$E2B2:    00            trap
$E2B3:    00            trap
$E2B4:    00            trap
$E2B5:    00            trap
$E2B6:    00            trap
$E2B7:    00            trap
$E2B8:    00            trap
$E2B9:    00            trap
$E2BA:    00            trap
$E2BB:    00            trap
$E2BC:    00            trap
$E2BD:    00            trap
$E2BE:    00            trap
$E2BF:    00            trap
$E2C0:    00            trap
$E2C1:    00            trap
$E2C2:    00            trap
$E2C3:    00            trap
$E2C4:    00            trap
$E2C5:    00            trap
$E2C6:    00            trap
$E2C7:    00            trap
$E2C8:    00            trap
$E2C9:    00            trap
$E2CA:    00            trap
$E2CB:    00            trap
$E2CC:    00            trap
$E2CD:    00            trap
$E2CE:    00            trap
$E2CF:    00            trap
$E2D0:    00            trap
$E2D1:    00            trap
$E2D2:    00            trap
$E2D3:    00            trap
$E2D4:    00            trap
$E2D5:    00            trap
$E2D6:    00            trap
$E2D7:    00            trap
$E2D8:    00            trap
$E2D9:    00            trap
$E2DA:    00            trap
$E2DB:    00            trap
$E2DC:    00            trap
$E2DD:    00            trap
$E2DE:    00            trap
$E2DF:    00            trap
$E2E0:    00            trap
$E2E1:    00            trap
$E2E2:    00            trap
$E2E3:    00            trap
$E2E4:    00            trap
$E2E5:    00            trap
$E2E6:    00            trap
$E2E7:    00            trap
$E2E8:    00            trap
$E2E9:    00            trap
$E2EA:    00            trap
$E2EB:    00            trap
$E2EC:    00            trap
$E2ED:    00            trap
$E2EE:    00            trap
$E2EF:    00            trap
$E2F0:    00            trap
$E2F1:    00            trap
$E2F2:    00            trap
$E2F3:    00            trap
$E2F4:    00            trap
$E2F5:    00            trap
$E2F6:    00            trap
$E2F7:    00            trap
$E2F8:    00            trap
$E2F9:    00            trap
$E2FA:    00            trap
$E2FB:    00            trap
$E2FC:    00            trap
$E2FD:    00            trap
$E2FE:    00            trap
$E2FF:    00            trap
$E300:    00            trap
$E301:    00            trap
$E302:    00            trap
$E303:    00            trap
$E304:    00            trap
$E305:    00            trap
$E306:    00            trap
$E307:    00            trap
$E308:    00            trap
$E309:    00            trap
$E30A:    00            trap
$E30B:    00            trap
$E30C:    00            trap
$E30D:    00            trap
$E30E:    00            trap
$E30F:    00            trap
$E310:    00            trap
$E311:    00            trap
$E312:    00            trap
$E313:    00            trap
$E314:    00            trap
$E315:    00            trap
$E316:    00            trap
$E317:    00            trap
$E318:    00            trap
$E319:    00            trap
$E31A:    00            trap
$E31B:    00            trap
$E31C:    00            trap
$E31D:    00            trap
$E31E:    00            trap
$E31F:    00            trap
$E320:    00            trap
$E321:    00            trap
$E322:    00            trap
$E323:    00            trap
$E324:    00            trap
$E325:    00            trap
$E326:    00            trap
$E327:    00            trap
$E328:    00            trap
$E329:    00            trap
$E32A:    00            trap
$E32B:    00            trap
$E32C:    00            trap
$E32D:    00            trap
$E32E:    00            trap
$E32F:    00            trap
$E330:    00            trap
$E331:    00            trap
$E332:    00            trap
$E333:    00            trap
$E334:    00            trap
$E335:    00            trap
$E336:    00            trap
$E337:    00            trap
$E338:    00            trap
$E339:    00            trap
$E33A:    00            trap
$E33B:    00            trap
$E33C:    00            trap
$E33D:    00            trap
$E33E:    00            trap
$E33F:    00            trap
$E340:    00            trap
$E341:    00            trap
$E342:    00            trap
$E343:    00            trap
$E344:    00            trap
$E345:    00            trap
$E346:    00            trap
$E347:    00            trap
$E348:    00            trap
$E349:    00            trap
$E34A:    00            trap
$E34B:    00            trap
$E34C:    00            trap
$E34D:    00            trap
$E34E:    00            trap
$E34F:    00            trap
$E350:    00            trap
$E351:    00            trap
$E352:    00            trap
$E353:    00            trap
$E354:    00            trap
$E355:    00            trap
$E356:    00            trap
$E357:    00            trap
$E358:    00            trap
$E359:    00            trap
$E35A:    00            trap
$E35B:    00            trap
$E35C:    00            trap
$E35D:    00            trap
$E35E:    00            trap
$E35F:    00            trap
$E360:    00            trap
$E361:    00            trap
$E362:    00            trap
$E363:    00            trap
$E364:    00            trap
$E365:    00            trap
$E366:    00            trap
$E367:    00            trap
$E368:    00            trap
$E369:    00            trap
$E36A:    00            trap
$E36B:    00            trap
$E36C:    00            trap
$E36D:    00            trap
$E36E:    00            trap
$E36F:    00            trap
$E370:    00            trap
$E371:    00            trap
$E372:    00            trap
$E373:    00            trap
$E374:    00            trap
$E375:    00            trap
$E376:    00            trap
$E377:    00            trap
$E378:    00            trap
$E379:    00            trap
$E37A:    00            trap
$E37B:    00            trap
$E37C:    00            trap
$E37D:    00            trap
$E37E:    00            trap
$E37F:    00            trap
$E380:    00            trap
$E381:    00            trap
$E382:    00            trap
$E383:    00            trap
$E384:    00            trap
$E385:    00            trap
$E386:    00            trap
$E387:    00            trap
$E388:    00            trap
$E389:    00            trap
$E38A:    00            trap
$E38B:    00            trap
$E38C:    00            trap
$E38D:    00            trap
$E38E:    00            trap
$E38F:    00            trap
$E390:    00            trap
$E391:    00            trap
$E392:    00            trap
$E393:    00            trap
$E394:    00            trap
$E395:    00            trap
$E396:    00            trap
$E397:    00            trap
$E398:    00            trap
$E399:    00            trap
$E39A:    00            trap
$E39B:    00            trap
$E39C:    00            trap
$E39D:    00            trap
$E39E:    00            trap
$E39F:    00            trap
$E3A0:    00            trap
$E3A1:    00            trap
$E3A2:    00            trap
$E3A3:    00            trap
$E3A4:    00            trap
$E3A5:    00            trap
$E3A6:    00            trap
$E3A7:    00            trap
$E3A8:    00            trap
$E3A9:    00            trap
$E3AA:    00            trap
$E3AB:    00            trap
$E3AC:    00            trap
$E3AD:    00            trap
$E3AE:    00            trap
$E3AF:    00            trap
$E3B0:    00            trap
$E3B1:    00            trap
$E3B2:    00            trap
$E3B3:    00            trap
$E3B4:    00            trap
$E3B5:    00            trap
$E3B6:    00            trap
$E3B7:    00            trap
$E3B8:    00            trap
$E3B9:    00            trap
$E3BA:    00            trap
$E3BB:    00            trap
$E3BC:    00            trap
$E3BD:    00            trap
$E3BE:    00            trap
$E3BF:    00            trap
$E3C0:    00            trap
$E3C1:    00            trap
$E3C2:    00            trap
$E3C3:    00            trap
$E3C4:    00            trap
$E3C5:    00            trap
$E3C6:    00            trap
$E3C7:    00            trap
$E3C8:    00            trap
$E3C9:    00            trap
$E3CA:    00            trap
$E3CB:    00            trap
$E3CC:    00            trap
$E3CD:    00            trap
$E3CE:    00            trap
$E3CF:    00            trap
$E3D0:    00            trap
$E3D1:    00            trap
$E3D2:    00            trap
$E3D3:    00            trap
$E3D4:    00            trap
$E3D5:    00            trap
$E3D6:    00            trap
$E3D7:    00            trap
$E3D8:    00            trap
$E3D9:    00            trap
$E3DA:    00            trap
$E3DB:    00            trap
$E3DC:    00            trap
$E3DD:    00            trap
$E3DE:    00            trap
$E3DF:    00            trap
$E3E0:    00            trap
$E3E1:    00            trap
$E3E2:    00            trap
$E3E3:    00            trap
$E3E4:    00            trap
$E3E5:    00            trap
$E3E6:    00            trap
$E3E7:    00            trap
$E3E8:    00            trap
$E3E9:    00            trap
$E3EA:    00            trap
$E3EB:    00            trap
$E3EC:    00            trap
$E3ED:    00            trap
$E3EE:    00            trap
$E3EF:    00            trap
$E3F0:    00            trap
$E3F1:    00            trap
$E3F2:    00            trap
$E3F3:    00            trap
$E3F4:    00            trap
$E3F5:    00            trap
$E3F6:    00            trap
$E3F7:    00            trap
$E3F8:    00            trap
$E3F9:    00            trap
$E3FA:    00            trap
$E3FB:    00            trap
$E3FC:    00            trap
$E3FD:    00            trap
$E3FE:    00            trap
$E3FF:    00            trap
$E400:    00            trap
$E401:    00            trap
$E402:    00            trap
$E403:    00            trap
$E404:    00            trap
$E405:    00            trap
$E406:    00            trap
$E407:    00            trap
$E408:    00            trap
$E409:    00            trap
$E40A:    00            trap
$E40B:    00            trap
$E40C:    00            trap
$E40D:    00            trap
$E40E:    00            trap
$E40F:    00            trap
$E410:    00            trap
$E411:    00            trap
$E412:    00            trap
$E413:    00            trap
$E414:    00            trap
$E415:    00            trap
$E416:    00            trap
$E417:    00            trap
$E418:    00            trap
$E419:    00            trap
$E41A:    00            trap
$E41B:    00            trap
$E41C:    00            trap
$E41D:    00            trap
$E41E:    00            trap
$E41F:    00            trap
$E420:    00            trap
$E421:    00            trap
$E422:    00            trap
$E423:    00            trap
$E424:    00            trap
$E425:    00            trap
$E426:    00            trap
$E427:    00            trap
$E428:    00            trap
$E429:    00            trap
$E42A:    00            trap
$E42B:    00            trap
$E42C:    00            trap
$E42D:    00            trap
$E42E:    00            trap
$E42F:    00            trap
$E430:    00            trap
$E431:    00            trap
$E432:    00            trap
$E433:    00            trap
$E434:    00            trap
$E435:    00            trap
$E436:    00            trap
$E437:    00            trap
$E438:    00            trap
$E439:    00            trap
$E43A:    00            trap
$E43B:    00            trap
$E43C:    00            trap
$E43D:    00            trap
$E43E:    00            trap
$E43F:    00            trap
$E440:    00            trap
$E441:    00            trap
$E442:    00            trap
$E443:    00            trap
$E444:    00            trap
$E445:    00            trap
$E446:    00            trap
$E447:    00            trap
$E448:    00            trap
$E449:    00            trap
$E44A:    00            trap
$E44B:    00            trap
$E44C:    00            trap
$E44D:    00            trap
$E44E:    00            trap
$E44F:    00            trap
$E450:    00            trap
$E451:    00            trap
$E452:    00            trap
$E453:    00            trap
$E454:    00            trap
$E455:    00            trap
$E456:    00            trap
$E457:    00            trap
$E458:    00            trap
$E459:    00            trap
$E45A:    00            trap
$E45B:    00            trap
$E45C:    00            trap
$E45D:    00            trap
$E45E:    00            trap
$E45F:    00            trap
$E460:    00            trap
$E461:    00            trap
$E462:    00            trap
$E463:    00            trap
$E464:    00            trap
$E465:    00            trap
$E466:    00            trap
$E467:    00            trap
$E468:    00            trap
$E469:    00            trap
$E46A:    00            trap
$E46B:    00            trap
$E46C:    00            trap
$E46D:    00            trap
$E46E:    00            trap
$E46F:    00            trap
$E470:    00            trap
$E471:    00            trap
$E472:    00            trap
$E473:    00            trap
$E474:    00            trap
$E475:    00            trap
$E476:    00            trap
$E477:    00            trap
$E478:    00            trap
$E479:    00            trap
$E47A:    00            trap
$E47B:    00            trap
$E47C:    00            trap
$E47D:    00            trap
$E47E:    00            trap
$E47F:    00            trap
$E480:    00            trap
$E481:    00            trap
$E482:    00            trap
$E483:    00            trap
$E484:    00            trap
$E485:    00            trap
$E486:    00            trap
$E487:    00            trap
$E488:    00            trap
$E489:    00            trap
$E48A:    00            trap
$E48B:    00            trap
$E48C:    00            trap
$E48D:    00            trap
$E48E:    00            trap
$E48F:    00            trap
$E490:    00            trap
$E491:    00            trap
$E492:    00            trap
$E493:    00            trap
$E494:    00            trap
$E495:    00            trap
$E496:    00            trap
$E497:    00            trap
$E498:    00            trap
$E499:    00            trap
$E49A:    00            trap
$E49B:    00            trap
$E49C:    00            trap
$E49D:    00            trap
$E49E:    00            trap
$E49F:    00            trap
$E4A0:    00            trap
$E4A1:    00            trap
$E4A2:    00            trap
$E4A3:    00            trap
$E4A4:    00            trap
$E4A5:    00            trap
$E4A6:    00            trap
$E4A7:    00            trap
$E4A8:    00            trap
$E4A9:    00            trap
$E4AA:    00            trap
$E4AB:    00            trap
$E4AC:    00            trap
$E4AD:    00            trap
$E4AE:    00            trap
$E4AF:    00            trap
$E4B0:    00            trap
$E4B1:    00            trap
$E4B2:    00            trap
$E4B3:    00            trap
$E4B4:    00            trap
$E4B5:    00            trap
$E4B6:    00            trap
$E4B7:    00            trap
$E4B8:    00            trap
$E4B9:    00            trap
$E4BA:    00            trap
$E4BB:    00            trap
$E4BC:    00            trap
$E4BD:    00            trap
$E4BE:    00            trap
$E4BF:    00            trap
$E4C0:    00            trap
$E4C1:    00            trap
$E4C2:    00            trap
$E4C3:    00            trap
$E4C4:    00            trap
$E4C5:    00            trap
$E4C6:    00            trap
$E4C7:    00            trap
$E4C8:    00            trap
$E4C9:    00            trap
$E4CA:    00            trap
$E4CB:    00            trap
$E4CC:    00            trap
$E4CD:    00            trap
$E4CE:    00            trap
$E4CF:    00            trap
$E4D0:    00            trap
$E4D1:    00            trap
$E4D2:    00            trap
$E4D3:    00            trap
$E4D4:    00            trap
$E4D5:    00            trap
$E4D6:    00            trap
$E4D7:    00            trap
$E4D8:    00            trap
$E4D9:    00            trap
$E4DA:    00            trap
$E4DB:    00            trap
$E4DC:    00            trap
$E4DD:    00            trap
$E4DE:    00            trap
$E4DF:    00            trap
$E4E0:    00            trap
$E4E1:    00            trap
$E4E2:    00            trap
$E4E3:    00            trap
$E4E4:    00            trap
$E4E5:    00            trap
$E4E6:    00            trap
$E4E7:    00            trap
$E4E8:    00            trap
$E4E9:    00            trap
$E4EA:    00            trap
$E4EB:    00            trap
$E4EC:    00            trap
$E4ED:    00            trap
$E4EE:    00            trap
$E4EF:    00            trap
$E4F0:    00            trap
$E4F1:    00            trap
$E4F2:    00            trap
$E4F3:    00            trap
$E4F4:    00            trap
$E4F5:    00            trap
$E4F6:    00            trap
$E4F7:    00            trap
$E4F8:    00            trap
$E4F9:    00            trap
$E4FA:    00            trap
$E4FB:    00            trap
$E4FC:    00            trap
$E4FD:    00            trap
$E4FE:    00            trap
$E4FF:    00            trap
$E500:    00            trap
$E501:    00            trap
$E502:    00            trap
$E503:    00            trap
$E504:    00            trap
$E505:    00            trap
$E506:    00            trap
$E507:    00            trap
$E508:    00            trap
$E509:    00            trap
$E50A:    00            trap
$E50B:    00            trap
$E50C:    00            trap
$E50D:    00            trap
$E50E:    00            trap
$E50F:    00            trap
$E510:    00            trap
$E511:    00            trap
$E512:    00            trap
$E513:    00            trap
$E514:    00            trap
$E515:    00            trap
$E516:    00            trap
$E517:    00            trap
$E518:    00            trap
$E519:    00            trap
$E51A:    00            trap
$E51B:    00            trap
$E51C:    00            trap
$E51D:    00            trap
$E51E:    00            trap
$E51F:    00            trap
$E520:    00            trap
$E521:    00            trap
$E522:    00            trap
$E523:    00            trap
$E524:    00            trap
$E525:    00            trap
$E526:    00            trap
$E527:    00            trap
$E528:    00            trap
$E529:    00            trap
$E52A:    00            trap
$E52B:    00            trap
$E52C:    00            trap
$E52D:    00            trap
$E52E:    00            trap
$E52F:    00            trap
$E530:    00            trap
$E531:    00            trap
$E532:    00            trap
$E533:    00            trap
$E534:    00            trap
$E535:    00            trap
$E536:    00            trap
$E537:    00            trap
$E538:    00            trap
$E539:    00            trap
$E53A:    00            trap
$E53B:    00            trap
$E53C:    00            trap
$E53D:    00            trap
$E53E:    00            trap
$E53F:    00            trap
$E540:    00            trap
$E541:    00            trap
$E542:    00            trap
$E543:    00            trap
$E544:    00            trap
$E545:    00            trap
$E546:    00            trap
$E547:    00            trap
$E548:    00            trap
$E549:    00            trap
$E54A:    00            trap
$E54B:    00            trap
$E54C:    00            trap
$E54D:    00            trap
$E54E:    00            trap
$E54F:    00            trap
$E550:    00            trap
$E551:    00            trap
$E552:    00            trap
$E553:    00            trap
$E554:    00            trap
$E555:    00            trap
$E556:    00            trap
$E557:    00            trap
$E558:    00            trap
$E559:    00            trap
$E55A:    00            trap
$E55B:    00            trap
$E55C:    00            trap
$E55D:    00            trap
$E55E:    00            trap
$E55F:    00            trap
$E560:    00            trap
$E561:    00            trap
$E562:    00            trap
$E563:    00            trap
$E564:    00            trap
$E565:    00            trap
$E566:    00            trap
$E567:    00            trap
$E568:    00            trap
$E569:    00            trap
$E56A:    00            trap
$E56B:    00            trap
$E56C:    00            trap
$E56D:    00            trap
$E56E:    00            trap
$E56F:    00            trap
$E570:    00            trap
$E571:    00            trap
$E572:    00            trap
$E573:    00            trap
$E574:    00            trap
$E575:    00            trap
$E576:    00            trap
$E577:    00            trap
$E578:    00            trap
$E579:    00            trap
$E57A:    00            trap
$E57B:    00            trap
$E57C:    00            trap
$E57D:    00            trap
$E57E:    00            trap
$E57F:    00            trap
$E580:    00            trap
$E581:    00            trap
$E582:    00            trap
$E583:    00            trap
$E584:    00            trap
$E585:    00            trap
$E586:    00            trap
$E587:    00            trap
$E588:    00            trap
$E589:    00            trap
$E58A:    00            trap
$E58B:    00            trap
$E58C:    00            trap
$E58D:    00            trap
$E58E:    00            trap
$E58F:    00            trap
$E590:    00            trap
$E591:    00            trap
$E592:    00            trap
$E593:    00            trap
$E594:    00            trap
$E595:    00            trap
$E596:    00            trap
$E597:    00            trap
$E598:    00            trap
$E599:    00            trap
$E59A:    00            trap
$E59B:    00            trap
$E59C:    00            trap
$E59D:    00            trap
$E59E:    00            trap
$E59F:    00            trap
$E5A0:    00            trap
$E5A1:    00            trap
$E5A2:    00            trap
$E5A3:    00            trap
$E5A4:    00            trap
$E5A5:    00            trap
$E5A6:    00            trap
$E5A7:    00            trap
$E5A8:    00            trap
$E5A9:    00            trap
$E5AA:    00            trap
$E5AB:    00            trap
$E5AC:    00            trap
$E5AD:    00            trap
$E5AE:    00            trap
$E5AF:    00            trap
$E5B0:    00            trap
$E5B1:    00            trap
$E5B2:    00            trap
$E5B3:    00            trap
$E5B4:    00            trap
$E5B5:    00            trap
$E5B6:    00            trap
$E5B7:    00            trap
$E5B8:    00            trap
$E5B9:    00            trap
$E5BA:    00            trap
$E5BB:    00            trap
$E5BC:    00            trap
$E5BD:    00            trap
$E5BE:    00            trap
$E5BF:    00            trap
$E5C0:    00            trap
$E5C1:    00            trap
$E5C2:    00            trap
$E5C3:    00            trap
$E5C4:    00            trap
$E5C5:    00            trap
$E5C6:    00            trap
$E5C7:    00            trap
$E5C8:    00            trap
$E5C9:    00            trap
$E5CA:    00            trap
$E5CB:    00            trap
$E5CC:    00            trap
$E5CD:    00            trap
$E5CE:    00            trap
$E5CF:    00            trap
$E5D0:    00            trap
$E5D1:    00            trap
$E5D2:    00            trap
$E5D3:    00            trap
$E5D4:    00            trap
$E5D5:    00            trap
$E5D6:    00            trap
$E5D7:    00            trap
$E5D8:    00            trap
$E5D9:    00            trap
$E5DA:    00            trap
$E5DB:    00            trap
$E5DC:    00            trap
$E5DD:    00            trap
$E5DE:    00            trap
$E5DF:    00            trap
$E5E0:    00            trap
$E5E1:    00            trap
$E5E2:    00            trap
$E5E3:    00            trap
$E5E4:    00            trap
$E5E5:    00            trap
$E5E6:    00            trap
$E5E7:    00            trap
$E5E8:    00            trap
$E5E9:    00            trap
$E5EA:    00            trap
$E5EB:    00            trap
$E5EC:    00            trap
$E5ED:    00            trap
$E5EE:    00            trap
$E5EF:    00            trap
$E5F0:    00            trap
$E5F1:    00            trap
$E5F2:    00            trap
$E5F3:    00            trap
$E5F4:    00            trap
$E5F5:    00            trap
$E5F6:    00            trap
$E5F7:    00            trap
$E5F8:    00            trap
$E5F9:    00            trap
$E5FA:    00            trap
$E5FB:    00            trap
$E5FC:    00            trap
$E5FD:    00            trap
$E5FE:    00            trap
$E5FF:    00            trap
$E600:    00            trap
$E601:    00            trap
$E602:    00            trap
$E603:    00            trap
$E604:    00            trap
$E605:    00            trap
$E606:    00            trap
$E607:    00            trap
$E608:    00            trap
$E609:    00            trap
$E60A:    00            trap
$E60B:    00            trap
$E60C:    00            trap
$E60D:    00            trap
$E60E:    00            trap
$E60F:    00            trap
$E610:    00            trap
$E611:    00            trap
$E612:    00            trap
$E613:    00            trap
$E614:    00            trap
$E615:    00            trap
$E616:    00            trap
$E617:    00            trap
$E618:    00            trap
$E619:    00            trap
$E61A:    00            trap
$E61B:    00            trap
$E61C:    00            trap
$E61D:    00            trap
$E61E:    00            trap
$E61F:    00            trap
$E620:    00            trap
$E621:    00            trap
$E622:    00            trap
$E623:    00            trap
$E624:    00            trap
$E625:    00            trap
$E626:    00            trap
$E627:    00            trap
$E628:    00            trap
$E629:    00            trap
$E62A:    00            trap
$E62B:    00            trap
$E62C:    00            trap
$E62D:    00            trap
$E62E:    00            trap
$E62F:    00            trap
$E630:    00            trap
$E631:    00            trap
$E632:    00            trap
$E633:    00            trap
$E634:    00            trap
$E635:    00            trap
$E636:    00            trap
$E637:    00            trap
$E638:    00            trap
$E639:    00            trap
$E63A:    00            trap
$E63B:    00            trap
$E63C:    00            trap
$E63D:    00            trap
$E63E:    00            trap
$E63F:    00            trap
$E640:    00            trap
$E641:    00            trap
$E642:    00            trap
$E643:    00            trap
$E644:    00            trap
$E645:    00            trap
$E646:    00            trap
$E647:    00            trap
$E648:    00            trap
$E649:    00            trap
$E64A:    00            trap
$E64B:    00            trap
$E64C:    00            trap
$E64D:    00            trap
$E64E:    00            trap
$E64F:    00            trap
$E650:    00            trap
$E651:    00            trap
$E652:    00            trap
$E653:    00            trap
$E654:    00            trap
$E655:    00            trap
$E656:    00            trap
$E657:    00            trap
$E658:    00            trap
$E659:    00            trap
$E65A:    00            trap
$E65B:    00            trap
$E65C:    00            trap
$E65D:    00            trap
$E65E:    00            trap
$E65F:    00            trap
$E660:    00            trap
$E661:    00            trap
$E662:    00            trap
$E663:    00            trap
$E664:    00            trap
$E665:    00            trap
$E666:    00            trap
$E667:    00            trap
$E668:    00            trap
$E669:    00            trap
$E66A:    00            trap
$E66B:    00            trap
$E66C:    00            trap
$E66D:    00            trap
$E66E:    00            trap
$E66F:    00            trap
$E670:    00            trap
$E671:    00            trap
$E672:    00            trap
$E673:    00            trap
$E674:    00            trap
$E675:    00            trap
$E676:    00            trap
$E677:    00            trap
$E678:    00            trap
$E679:    00            trap
$E67A:    00            trap
$E67B:    00            trap
$E67C:    00            trap
$E67D:    00            trap
$E67E:    00            trap
$E67F:    00            trap
$E680:    00            trap
$E681:    00            trap
$E682:    00            trap
$E683:    00            trap
$E684:    00            trap
$E685:    00            trap
$E686:    00            trap
$E687:    00            trap
$E688:    00            trap
$E689:    00            trap
$E68A:    00            trap
$E68B:    00            trap
$E68C:    00            trap
$E68D:    00            trap
$E68E:    00            trap
$E68F:    00            trap
$E690:    00            trap
$E691:    00            trap
$E692:    00            trap
$E693:    00            trap
$E694:    00            trap
$E695:    00            trap
$E696:    00            trap
$E697:    00            trap
$E698:    00            trap
$E699:    00            trap
$E69A:    00            trap
$E69B:    00            trap
$E69C:    00            trap
$E69D:    00            trap
$E69E:    00            trap
$E69F:    00            trap
$E6A0:    00            trap
$E6A1:    00            trap
$E6A2:    00            trap
$E6A3:    00            trap
$E6A4:    00            trap
$E6A5:    00            trap
$E6A6:    00            trap
$E6A7:    00            trap
$E6A8:    00            trap
$E6A9:    00            trap
$E6AA:    00            trap
$E6AB:    00            trap
$E6AC:    00            trap
$E6AD:    00            trap
$E6AE:    00            trap
$E6AF:    00            trap
$E6B0:    00            trap
$E6B1:    00            trap
$E6B2:    00            trap
$E6B3:    00            trap
$E6B4:    00            trap
$E6B5:    00            trap
$E6B6:    00            trap
$E6B7:    00            trap
$E6B8:    00            trap
$E6B9:    00            trap
$E6BA:    00            trap
$E6BB:    00            trap
$E6BC:    00            trap
$E6BD:    00            trap
$E6BE:    00            trap
$E6BF:    00            trap
$E6C0:    00            trap
$E6C1:    00            trap
$E6C2:    00            trap
$E6C3:    00            trap
$E6C4:    00            trap
$E6C5:    00            trap
$E6C6:    00            trap
$E6C7:    00            trap
$E6C8:    00            trap
$E6C9:    00            trap
$E6CA:    00            trap
$E6CB:    00            trap
$E6CC:    00            trap
$E6CD:    00            trap
$E6CE:    00            trap
$E6CF:    00            trap
$E6D0:    00            trap
$E6D1:    00            trap
$E6D2:    00            trap
$E6D3:    00            trap
$E6D4:    00            trap
$E6D5:    00            trap
$E6D6:    00            trap
$E6D7:    00            trap
$E6D8:    00            trap
$E6D9:    00            trap
$E6DA:    00            trap
$E6DB:    00            trap
$E6DC:    00            trap
$E6DD:    00            trap
$E6DE:    00            trap
$E6DF:    00            trap
$E6E0:    00            trap
$E6E1:    00            trap
$E6E2:    00            trap
$E6E3:    00            trap
$E6E4:    00            trap
$E6E5:    00            trap
$E6E6:    00            trap
$E6E7:    00            trap
$E6E8:    00            trap
$E6E9:    00            trap
$E6EA:    00            trap
$E6EB:    00            trap
$E6EC:    00            trap
$E6ED:    00            trap
$E6EE:    00            trap
$E6EF:    00            trap
$E6F0:    00            trap
$E6F1:    00            trap
$E6F2:    00            trap
$E6F3:    00            trap
$E6F4:    00            trap
$E6F5:    00            trap
$E6F6:    00            trap
$E6F7:    00            trap
$E6F8:    00            trap
$E6F9:    00            trap
$E6FA:    00            trap
$E6FB:    00            trap
$E6FC:    00            trap
$E6FD:    00            trap
$E6FE:    00            trap
$E6FF:    00            trap
$E700:    00            trap
$E701:    00            trap
$E702:    00            trap
$E703:    00            trap
$E704:    00            trap
$E705:    00            trap
$E706:    00            trap
$E707:    00            trap
$E708:    00            trap
$E709:    00            trap
$E70A:    00            trap
$E70B:    00            trap
$E70C:    00            trap
$E70D:    00            trap
$E70E:    00            trap
$E70F:    00            trap
$E710:    00            trap
$E711:    00            trap
$E712:    00            trap
$E713:    00            trap
$E714:    00            trap
$E715:    00            trap
$E716:    00            trap
$E717:    00            trap
$E718:    00            trap
$E719:    00            trap
$E71A:    00            trap
$E71B:    00            trap
$E71C:    00            trap
$E71D:    00            trap
$E71E:    00            trap
$E71F:    00            trap
$E720:    00            trap
$E721:    00            trap
$E722:    00            trap
$E723:    00            trap
$E724:    00            trap
$E725:    00            trap
$E726:    00            trap
$E727:    00            trap
$E728:    00            trap
$E729:    00            trap
$E72A:    00            trap
$E72B:    00            trap
$E72C:    00            trap
$E72D:    00            trap
$E72E:    00            trap
$E72F:    00            trap
$E730:    00            trap
$E731:    00            trap
$E732:    00            trap
$E733:    00            trap
$E734:    00            trap
$E735:    00            trap
$E736:    00            trap
$E737:    00            trap
$E738:    00            trap
$E739:    00            trap
$E73A:    00            trap
$E73B:    00            trap
$E73C:    00            trap
$E73D:    00            trap
$E73E:    00            trap
$E73F:    00            trap
$E740:    00            trap
$E741:    00            trap
$E742:    00            trap
$E743:    00            trap
$E744:    00            trap
$E745:    00            trap
$E746:    00            trap
$E747:    00            trap
$E748:    00            trap
$E749:    00            trap
$E74A:    00            trap
$E74B:    00            trap
$E74C:    00            trap
$E74D:    00            trap
$E74E:    00            trap
$E74F:    00            trap
$E750:    00            trap
$E751:    00            trap
$E752:    00            trap
$E753:    00            trap
$E754:    00            trap
$E755:    00            trap
$E756:    00            trap
$E757:    00            trap
$E758:    00            trap
$E759:    00            trap
$E75A:    00            trap
$E75B:    00            trap
$E75C:    00            trap
$E75D:    00            trap
$E75E:    00            trap
$E75F:    00            trap
$E760:    00            trap
$E761:    00            trap
$E762:    00            trap
$E763:    00            trap
$E764:    00            trap
$E765:    00            trap
$E766:    00            trap
$E767:    00            trap
$E768:    00            trap
$E769:    00            trap
$E76A:    00            trap
$E76B:    00            trap
$E76C:    00            trap
$E76D:    00            trap
$E76E:    00            trap
$E76F:    00            trap
$E770:    00            trap
$E771:    00            trap
$E772:    00            trap
$E773:    00            trap
$E774:    00            trap
$E775:    00            trap
$E776:    00            trap
$E777:    00            trap
$E778:    00            trap
$E779:    00            trap
$E77A:    00            trap
$E77B:    00            trap
$E77C:    00            trap
$E77D:    00            trap
$E77E:    00            trap
$E77F:    00            trap
$E780:    00            trap
$E781:    00            trap
$E782:    00            trap
$E783:    00            trap
$E784:    00            trap
$E785:    00            trap
$E786:    00            trap
$E787:    00            trap
$E788:    00            trap
$E789:    00            trap
$E78A:    00            trap
$E78B:    00            trap
$E78C:    00            trap
$E78D:    00            trap
$E78E:    00            trap
$E78F:    00            trap
$E790:    00            trap
$E791:    00            trap
$E792:    00            trap
$E793:    00            trap
$E794:    00            trap
$E795:    00            trap
$E796:    00            trap
$E797:    00            trap
$E798:    00            trap
$E799:    00            trap
$E79A:    00            trap
$E79B:    00            trap
$E79C:    00            trap
$E79D:    00            trap
$E79E:    00            trap
$E79F:    00            trap
$E7A0:    00            trap
$E7A1:    00            trap
$E7A2:    00            trap
$E7A3:    00            trap
$E7A4:    00            trap
$E7A5:    00            trap
$E7A6:    00            trap
$E7A7:    00            trap
$E7A8:    00            trap
$E7A9:    00            trap
$E7AA:    00            trap
$E7AB:    00            trap
$E7AC:    00            trap
$E7AD:    00            trap
$E7AE:    00            trap
$E7AF:    00            trap
$E7B0:    00            trap
$E7B1:    00            trap
$E7B2:    00            trap
$E7B3:    00            trap
$E7B4:    00            trap
$E7B5:    00            trap
$E7B6:    00            trap
$E7B7:    00            trap
$E7B8:    00            trap
$E7B9:    00            trap
$E7BA:    00            trap
$E7BB:    00            trap
$E7BC:    00            trap
$E7BD:    00            trap
$E7BE:    00            trap
$E7BF:    00            trap
$E7C0:    00            trap
$E7C1:    00            trap
$E7C2:    00            trap
$E7C3:    00            trap
$E7C4:    00            trap
$E7C5:    00            trap
$E7C6:    00            trap
$E7C7:    00            trap
$E7C8:    00            trap
$E7C9:    00            trap
$E7CA:    00            trap
$E7CB:    00            trap
$E7CC:    00            trap
$E7CD:    00            trap
$E7CE:    00            trap
$E7CF:    00            trap
$E7D0:    00            trap
$E7D1:    00            trap
$E7D2:    00            trap
$E7D3:    00            trap
$E7D4:    00            trap
$E7D5:    00            trap
$E7D6:    00            trap
$E7D7:    00            trap
$E7D8:    00            trap
$E7D9:    00            trap
$E7DA:    00            trap
$E7DB:    00            trap
$E7DC:    00            trap
$E7DD:    00            trap
$E7DE:    00            trap
$E7DF:    00            trap
$E7E0:    00            trap
$E7E1:    00            trap
$E7E2:    00            trap
$E7E3:    00            trap
$E7E4:    00            trap
$E7E5:    00            trap
$E7E6:    00            trap
$E7E7:    00            trap
$E7E8:    00            trap
$E7E9:    00            trap
$E7EA:    00            trap
$E7EB:    00            trap
$E7EC:    00            trap
$E7ED:    00            trap
$E7EE:    00            trap
$E7EF:    00            trap
$E7F0:    00            trap
$E7F1:    00            trap
$E7F2:    00            trap
$E7F3:    00            trap
$E7F4:    00            trap
$E7F5:    00            trap
$E7F6:    00            trap
$E7F7:    00            trap
$E7F8:    00            trap
$E7F9:    00            trap
$E7FA:    00            trap
$E7FB:    00            trap
$E7FC:    00            trap
$E7FD:    00            trap
$E7FE:    00            trap
$E7FF:    00            trap
$E800:    00            trap
$E801:    00            trap
$E802:    00            trap
$E803:    00            trap
$E804:    00            trap
$E805:    00            trap
$E806:    00            trap
$E807:    00            trap
$E808:    00            trap
$E809:    00            trap
$E80A:    00            trap
$E80B:    00            trap
$E80C:    00            trap
$E80D:    00            trap
$E80E:    00            trap
$E80F:    00            trap
$E810:    00            trap
$E811:    00            trap
$E812:    00            trap
$E813:    00            trap
$E814:    00            trap
$E815:    00            trap
$E816:    00            trap
$E817:    00            trap
$E818:    00            trap
$E819:    00            trap
$E81A:    00            trap
$E81B:    00            trap
$E81C:    00            trap
$E81D:    00            trap
$E81E:    00            trap
$E81F:    00            trap
$E820:    00            trap
$E821:    00            trap
$E822:    00            trap
$E823:    00            trap
$E824:    00            trap
$E825:    00            trap
$E826:    00            trap
$E827:    00            trap
$E828:    00            trap
$E829:    00            trap
$E82A:    00            trap
$E82B:    00            trap
$E82C:    00            trap
$E82D:    00            trap
$E82E:    00            trap
$E82F:    00            trap
$E830:    00            trap
$E831:    00            trap
$E832:    00            trap
$E833:    00            trap
$E834:    00            trap
$E835:    00            trap
$E836:    00            trap
$E837:    00            trap
$E838:    00            trap
$E839:    00            trap
$E83A:    00            trap
$E83B:    00            trap
$E83C:    00            trap
$E83D:    00            trap
$E83E:    00            trap
$E83F:    00            trap
$E840:    00            trap
$E841:    00            trap
$E842:    00            trap
$E843:    00            trap
$E844:    00            trap
$E845:    00            trap
$E846:    00            trap
$E847:    00            trap
$E848:    00            trap
$E849:    00            trap
$E84A:    00            trap
$E84B:    00            trap
$E84C:    00            trap
$E84D:    00            trap
$E84E:    00            trap
$E84F:    00            trap
$E850:    00            trap
$E851:    00            trap
$E852:    00            trap
$E853:    00            trap
$E854:    00            trap
$E855:    00            trap
$E856:    00            trap
$E857:    00            trap
$E858:    00            trap
$E859:    00            trap
$E85A:    00            trap
$E85B:    00            trap
$E85C:    00            trap
$E85D:    00            trap
$E85E:    00            trap
$E85F:    00            trap
$E860:    00            trap
$E861:    00            trap
$E862:    00            trap
$E863:    00            trap
$E864:    00            trap
$E865:    00            trap
$E866:    00            trap
$E867:    00            trap
$E868:    00            trap
$E869:    00            trap
$E86A:    00            trap
$E86B:    00            trap
$E86C:    00            trap
$E86D:    00            trap
$E86E:    00            trap
$E86F:    00            trap
$E870:    00            trap
$E871:    00            trap
$E872:    00            trap
$E873:    00            trap
$E874:    00            trap
$E875:    00            trap
$E876:    00            trap
$E877:    00            trap
$E878:    00            trap
$E879:    00            trap
$E87A:    00            trap
$E87B:    00            trap
$E87C:    00            trap
$E87D:    00            trap
$E87E:    00            trap
$E87F:    00            trap
$E880:    00            trap
$E881:    00            trap
$E882:    00            trap
$E883:    00            trap
$E884:    00            trap
$E885:    00            trap
$E886:    00            trap
$E887:    00            trap
$E888:    00            trap
$E889:    00            trap
$E88A:    00            trap
$E88B:    00            trap
$E88C:    00            trap
$E88D:    00            trap
$E88E:    00            trap
$E88F:    00            trap
$E890:    00            trap
$E891:    00            trap
$E892:    00            trap
$E893:    00            trap
$E894:    00            trap
$E895:    00            trap
$E896:    00            trap
$E897:    00            trap
$E898:    00            trap
$E899:    00            trap
$E89A:    00            trap
$E89B:    00            trap
$E89C:    00            trap
$E89D:    00            trap
$E89E:    00            trap
$E89F:    00            trap
$E8A0:    00            trap
$E8A1:    00            trap
$E8A2:    00            trap
$E8A3:    00            trap
$E8A4:    00            trap
$E8A5:    00            trap
$E8A6:    00            trap
$E8A7:    00            trap
$E8A8:    00            trap
$E8A9:    00            trap
$E8AA:    00            trap
$E8AB:    00            trap
$E8AC:    00            trap
$E8AD:    00            trap
$E8AE:    00            trap
$E8AF:    00            trap
$E8B0:    00            trap
$E8B1:    00            trap
$E8B2:    00            trap
$E8B3:    00            trap
$E8B4:    00            trap
$E8B5:    00            trap
$E8B6:    00            trap
$E8B7:    00            trap
$E8B8:    00            trap
$E8B9:    00            trap
$E8BA:    00            trap
$E8BB:    00            trap
$E8BC:    00            trap
$E8BD:    00            trap
$E8BE:    00            trap
$E8BF:    00            trap
$E8C0:    00            trap
$E8C1:    00            trap
$E8C2:    00            trap
$E8C3:    00            trap
$E8C4:    00            trap
$E8C5:    00            trap
$E8C6:    00            trap
$E8C7:    00            trap
$E8C8:    00            trap
$E8C9:    00            trap
$E8CA:    00            trap
$E8CB:    00            trap
$E8CC:    00            trap
$E8CD:    00            trap
$E8CE:    00            trap
$E8CF:    00            trap
$E8D0:    00            trap
$E8D1:    00            trap
$E8D2:    00            trap
$E8D3:    00            trap
$E8D4:    00            trap
$E8D5:    00            trap
$E8D6:    00            trap
$E8D7:    00            trap
$E8D8:    00            trap
$E8D9:    00            trap
$E8DA:    00            trap
$E8DB:    00            trap
$E8DC:    00            trap
$E8DD:    00            trap
$E8DE:    00            trap
$E8DF:    00            trap
$E8E0:    00            trap
$E8E1:    00            trap
$E8E2:    00            trap
$E8E3:    00            trap
$E8E4:    00            trap
$E8E5:    00            trap
$E8E6:    00            trap
$E8E7:    00            trap
$E8E8:    00            trap
$E8E9:    00            trap
$E8EA:    00            trap
$E8EB:    00            trap
$E8EC:    00            trap
$E8ED:    00            trap
$E8EE:    00            trap
$E8EF:    00            trap
$E8F0:    00            trap
$E8F1:    00            trap
$E8F2:    00            trap
$E8F3:    00            trap
$E8F4:    00            trap
$E8F5:    00            trap
$E8F6:    00            trap
$E8F7:    00            trap
$E8F8:    00            trap
$E8F9:    00            trap
$E8FA:    00            trap
$E8FB:    00            trap
$E8FC:    00            trap
$E8FD:    00            trap
$E8FE:    00            trap
$E8FF:    00            trap
$E900:    00            trap
$E901:    00            trap
$E902:    00            trap
$E903:    00            trap
$E904:    00            trap
$E905:    00            trap
$E906:    00            trap
$E907:    00            trap
$E908:    00            trap
$E909:    00            trap
$E90A:    00            trap
$E90B:    00            trap
$E90C:    00            trap
$E90D:    00            trap
$E90E:    00            trap
$E90F:    00            trap
$E910:    00            trap
$E911:    00            trap
$E912:    00            trap
$E913:    00            trap
$E914:    00            trap
$E915:    00            trap
$E916:    00            trap
$E917:    00            trap
$E918:    00            trap
$E919:    00            trap
$E91A:    00            trap
$E91B:    00            trap
$E91C:    00            trap
$E91D:    00            trap
$E91E:    00            trap
$E91F:    00            trap
$E920:    00            trap
$E921:    00            trap
$E922:    00            trap
$E923:    00            trap
$E924:    00            trap
$E925:    00            trap
$E926:    00            trap
$E927:    00            trap
$E928:    00            trap
$E929:    00            trap
$E92A:    00            trap
$E92B:    00            trap
$E92C:    00            trap
$E92D:    00            trap
$E92E:    00            trap
$E92F:    00            trap
$E930:    00            trap
$E931:    00            trap
$E932:    00            trap
$E933:    00            trap
$E934:    00            trap
$E935:    00            trap
$E936:    00            trap
$E937:    00            trap
$E938:    00            trap
$E939:    00            trap
$E93A:    00            trap
$E93B:    00            trap
$E93C:    00            trap
$E93D:    00            trap
$E93E:    00            trap
$E93F:    00            trap
$E940:    00            trap
$E941:    00            trap
$E942:    00            trap
$E943:    00            trap
$E944:    00            trap
$E945:    00            trap
$E946:    00            trap
$E947:    00            trap
$E948:    00            trap
$E949:    00            trap
$E94A:    00            trap
$E94B:    00            trap
$E94C:    00            trap
$E94D:    00            trap
$E94E:    00            trap
$E94F:    00            trap
$E950:    00            trap
$E951:    00            trap
$E952:    00            trap
$E953:    00            trap
$E954:    00            trap
$E955:    00            trap
$E956:    00            trap
$E957:    00            trap
$E958:    00            trap
$E959:    00            trap
$E95A:    00            trap
$E95B:    00            trap
$E95C:    00            trap
$E95D:    00            trap
$E95E:    00            trap
$E95F:    00            trap
$E960:    00            trap
$E961:    00            trap
$E962:    00            trap
$E963:    00            trap
$E964:    00            trap
$E965:    00            trap
$E966:    00            trap
$E967:    00            trap
$E968:    00            trap
$E969:    00            trap
$E96A:    00            trap
$E96B:    00            trap
$E96C:    00            trap
$E96D:    00            trap
$E96E:    00            trap
$E96F:    00            trap
$E970:    00            trap
$E971:    00            trap
$E972:    00            trap
$E973:    00            trap
$E974:    00            trap
$E975:    00            trap
$E976:    00            trap
$E977:    00            trap
$E978:    00            trap
$E979:    00            trap
$E97A:    00            trap
$E97B:    00            trap
$E97C:    00            trap
$E97D:    00            trap
$E97E:    00            trap
$E97F:    00            trap
$E980:    00            trap
$E981:    00            trap
$E982:    00            trap
$E983:    00            trap
$E984:    00            trap
$E985:    00            trap
$E986:    00            trap
$E987:    00            trap
$E988:    00            trap
$E989:    00            trap
$E98A:    00            trap
$E98B:    00            trap
$E98C:    00            trap
$E98D:    00            trap
$E98E:    00            trap
$E98F:    00            trap
$E990:    00            trap
$E991:    00            trap
$E992:    00            trap
$E993:    00            trap
$E994:    00            trap
$E995:    00            trap
$E996:    00            trap
$E997:    00            trap
$E998:    00            trap
$E999:    00            trap
$E99A:    00            trap
$E99B:    00            trap
$E99C:    00            trap
$E99D:    00            trap
$E99E:    00            trap
$E99F:    00            trap
$E9A0:    00            trap
$E9A1:    00            trap
$E9A2:    00            trap
$E9A3:    00            trap
$E9A4:    00            trap
$E9A5:    00            trap
$E9A6:    00            trap
$E9A7:    00            trap
$E9A8:    00            trap
$E9A9:    00            trap
$E9AA:    00            trap
$E9AB:    00            trap
$E9AC:    00            trap
$E9AD:    00            trap
$E9AE:    00            trap
$E9AF:    00            trap
$E9B0:    00            trap
$E9B1:    00            trap
$E9B2:    00            trap
$E9B3:    00            trap
$E9B4:    00            trap
$E9B5:    00            trap
$E9B6:    00            trap
$E9B7:    00            trap
$E9B8:    00            trap
$E9B9:    00            trap
$E9BA:    00            trap
$E9BB:    00            trap
$E9BC:    00            trap
$E9BD:    00            trap
$E9BE:    00            trap
$E9BF:    00            trap
$E9C0:    00            trap
$E9C1:    00            trap
$E9C2:    00            trap
$E9C3:    00            trap
$E9C4:    00            trap
$E9C5:    00            trap
$E9C6:    00            trap
$E9C7:    00            trap
$E9C8:    00            trap
$E9C9:    00            trap
$E9CA:    00            trap
$E9CB:    00            trap
$E9CC:    00            trap
$E9CD:    00            trap
$E9CE:    00            trap
$E9CF:    00            trap
$E9D0:    00            trap
$E9D1:    00            trap
$E9D2:    00            trap
$E9D3:    00            trap
$E9D4:    00            trap
$E9D5:    00            trap
$E9D6:    00            trap
$E9D7:    00            trap
$E9D8:    00            trap
$E9D9:    00            trap
$E9DA:    00            trap
$E9DB:    00            trap
$E9DC:    00            trap
$E9DD:    00            trap
$E9DE:    00            trap
$E9DF:    00            trap
$E9E0:    00            trap
$E9E1:    00            trap
$E9E2:    00            trap
$E9E3:    00            trap
$E9E4:    00            trap
$E9E5:    00            trap
$E9E6:    00            trap
$E9E7:    00            trap
$E9E8:    00            trap
$E9E9:    00            trap
$E9EA:    00            trap
$E9EB:    00            trap
$E9EC:    00            trap
$E9ED:    00            trap
$E9EE:    00            trap
$E9EF:    00            trap
$E9F0:    00            trap
$E9F1:    00            trap
$E9F2:    00            trap
$E9F3:    00            trap
$E9F4:    00            trap
$E9F5:    00            trap
$E9F6:    00            trap
$E9F7:    00            trap
$E9F8:    00            trap
$E9F9:    00            trap
$E9FA:    00            trap
$E9FB:    00            trap
$E9FC:    00            trap
$E9FD:    00            trap
$E9FE:    00            trap
$E9FF:    00            trap
$EA00:    00            trap
$EA01:    00            trap
$EA02:    00            trap
$EA03:    00            trap
$EA04:    00            trap
$EA05:    00            trap
$EA06:    00            trap
$EA07:    00            trap
$EA08:    00            trap
$EA09:    00            trap
$EA0A:    00            trap
$EA0B:    00            trap
$EA0C:    00            trap
$EA0D:    00            trap
$EA0E:    00            trap
$EA0F:    00            trap
$EA10:    00            trap
$EA11:    00            trap
$EA12:    00            trap
$EA13:    00            trap
$EA14:    00            trap
$EA15:    00            trap
$EA16:    00            trap
$EA17:    00            trap
$EA18:    00            trap
$EA19:    00            trap
$EA1A:    00            trap
$EA1B:    00            trap
$EA1C:    00            trap
$EA1D:    00            trap
$EA1E:    00            trap
$EA1F:    00            trap
$EA20:    00            trap
$EA21:    00            trap
$EA22:    00            trap
$EA23:    00            trap
$EA24:    00            trap
$EA25:    00            trap
$EA26:    00            trap
$EA27:    00            trap
$EA28:    00            trap
$EA29:    00            trap
$EA2A:    00            trap
$EA2B:    00            trap
$EA2C:    00            trap
$EA2D:    00            trap
$EA2E:    00            trap
$EA2F:    00            trap
$EA30:    00            trap
$EA31:    00            trap
$EA32:    00            trap
$EA33:    00            trap
$EA34:    00            trap
$EA35:    00            trap
$EA36:    00            trap
$EA37:    00            trap
$EA38:    00            trap
$EA39:    00            trap
$EA3A:    00            trap
$EA3B:    00            trap
$EA3C:    00            trap
$EA3D:    00            trap
$EA3E:    00            trap
$EA3F:    00            trap
$EA40:    00            trap
$EA41:    00            trap
$EA42:    00            trap
$EA43:    00            trap
$EA44:    00            trap
$EA45:    00            trap
$EA46:    00            trap
$EA47:    00            trap
$EA48:    00            trap
$EA49:    00            trap
$EA4A:    00            trap
$EA4B:    00            trap
$EA4C:    00            trap
$EA4D:    00            trap
$EA4E:    00            trap
$EA4F:    00            trap
$EA50:    00            trap
$EA51:    00            trap
$EA52:    00            trap
$EA53:    00            trap
$EA54:    00            trap
$EA55:    00            trap
$EA56:    00            trap
$EA57:    00            trap
$EA58:    00            trap
$EA59:    00            trap
$EA5A:    00            trap
$EA5B:    00            trap
$EA5C:    00            trap
$EA5D:    00            trap
$EA5E:    00            trap
$EA5F:    00            trap
$EA60:    00            trap
$EA61:    00            trap
$EA62:    00            trap
$EA63:    00            trap
$EA64:    00            trap
$EA65:    00            trap
$EA66:    00            trap
$EA67:    00            trap
$EA68:    00            trap
$EA69:    00            trap
$EA6A:    00            trap
$EA6B:    00            trap
$EA6C:    00            trap
$EA6D:    00            trap
$EA6E:    00            trap
$EA6F:    00            trap
$EA70:    00            trap
$EA71:    00            trap
$EA72:    00            trap
$EA73:    00            trap
$EA74:    00            trap
$EA75:    00            trap
$EA76:    00            trap
$EA77:    00            trap
$EA78:    00            trap
$EA79:    00            trap
$EA7A:    00            trap
$EA7B:    00            trap
$EA7C:    00            trap
$EA7D:    00            trap
$EA7E:    00            trap
$EA7F:    00            trap
$EA80:    00            trap
$EA81:    00            trap
$EA82:    00            trap
$EA83:    00            trap
$EA84:    00            trap
$EA85:    00            trap
$EA86:    00            trap
$EA87:    00            trap
$EA88:    00            trap
$EA89:    00            trap
$EA8A:    00            trap
$EA8B:    00            trap
$EA8C:    00            trap
$EA8D:    00            trap
$EA8E:    00            trap
$EA8F:    00            trap
$EA90:    00            trap
$EA91:    00            trap
$EA92:    00            trap
$EA93:    00            trap
$EA94:    00            trap
$EA95:    00            trap
$EA96:    00            trap
$EA97:    00            trap
$EA98:    00            trap
$EA99:    00            trap
$EA9A:    00            trap
$EA9B:    00            trap
$EA9C:    00            trap
$EA9D:    00            trap
$EA9E:    00            trap
$EA9F:    00            trap
$EAA0:    00            trap
$EAA1:    00            trap
$EAA2:    00            trap
$EAA3:    00            trap
$EAA4:    00            trap
$EAA5:    00            trap
$EAA6:    00            trap
$EAA7:    00            trap
$EAA8:    00            trap
$EAA9:    00            trap
$EAAA:    00            trap
$EAAB:    00            trap
$EAAC:    00            trap
$EAAD:    00            trap
$EAAE:    00            trap
$EAAF:    00            trap
$EAB0:    00            trap
$EAB1:    00            trap
$EAB2:    00            trap
$EAB3:    00            trap
$EAB4:    00            trap
$EAB5:    00            trap
$EAB6:    00            trap
$EAB7:    00            trap
$EAB8:    00            trap
$EAB9:    00            trap
$EABA:    00            trap
$EABB:    00            trap
$EABC:    00            trap
$EABD:    00            trap
$EABE:    00            trap
$EABF:    00            trap
$EAC0:    00            trap
$EAC1:    00            trap
$EAC2:    00            trap
$EAC3:    00            trap
$EAC4:    00            trap
$EAC5:    00            trap
$EAC6:    00            trap
$EAC7:    00            trap
$EAC8:    00            trap
$EAC9:    00            trap
$EACA:    00            trap
$EACB:    00            trap
$EACC:    00            trap
$EACD:    00            trap
$EACE:    00            trap
$EACF:    00            trap
$EAD0:    00            trap
$EAD1:    00            trap
$EAD2:    00            trap
$EAD3:    00            trap
$EAD4:    00            trap
$EAD5:    00            trap
$EAD6:    00            trap
$EAD7:    00            trap
$EAD8:    00            trap
$EAD9:    00            trap
$EADA:    00            trap
$EADB:    00            trap
$EADC:    00            trap
$EADD:    00            trap
$EADE:    00            trap
$EADF:    00            trap
$EAE0:    00            trap
$EAE1:    00            trap
$EAE2:    00            trap
$EAE3:    00            trap
$EAE4:    00            trap
$EAE5:    00            trap
$EAE6:    00            trap
$EAE7:    00            trap
$EAE8:    00            trap
$EAE9:    00            trap
$EAEA:    00            trap
$EAEB:    00            trap
$EAEC:    00            trap
$EAED:    00            trap
$EAEE:    00            trap
$EAEF:    00            trap
$EAF0:    00            trap
$EAF1:    00            trap
$EAF2:    00            trap
$EAF3:    00            trap
$EAF4:    00            trap
$EAF5:    00            trap
$EAF6:    00            trap
$EAF7:    00            trap
$EAF8:    00            trap
$EAF9:    00            trap
$EAFA:    00            trap
$EAFB:    00            trap
$EAFC:    00            trap
$EAFD:    00            trap
$EAFE:    00            trap
$EAFF:    00            trap
$EB00:    00            trap
$EB01:    00            trap
$EB02:    00            trap
$EB03:    00            trap
$EB04:    00            trap
$EB05:    00            trap
$EB06:    00            trap
$EB07:    00            trap
$EB08:    00            trap
$EB09:    00            trap
$EB0A:    00            trap
$EB0B:    00            trap
$EB0C:    00            trap
$EB0D:    00            trap
$EB0E:    00            trap
$EB0F:    00            trap
$EB10:    00            trap
$EB11:    00            trap
$EB12:    00            trap
$EB13:    00            trap
$EB14:    00            trap
$EB15:    00            trap
$EB16:    00            trap
$EB17:    00            trap
$EB18:    00            trap
$EB19:    00            trap
$EB1A:    00            trap
$EB1B:    00            trap
$EB1C:    00            trap
$EB1D:    00            trap
$EB1E:    00            trap
$EB1F:    00            trap
$EB20:    00            trap
$EB21:    00            trap
$EB22:    00            trap
$EB23:    00            trap
$EB24:    00            trap
$EB25:    00            trap
$EB26:    00            trap
$EB27:    00            trap
$EB28:    00            trap
$EB29:    00            trap
$EB2A:    00            trap
$EB2B:    00            trap
$EB2C:    00            trap
$EB2D:    00            trap
$EB2E:    00            trap
$EB2F:    00            trap
$EB30:    00            trap
$EB31:    00            trap
$EB32:    00            trap
$EB33:    00            trap
$EB34:    00            trap
$EB35:    00            trap
$EB36:    00            trap
$EB37:    00            trap
$EB38:    00            trap
$EB39:    00            trap
$EB3A:    00            trap
$EB3B:    00            trap
$EB3C:    00            trap
$EB3D:    00            trap
$EB3E:    00            trap
$EB3F:    00            trap
$EB40:    00            trap
$EB41:    00            trap
$EB42:    00            trap
$EB43:    00            trap
$EB44:    00            trap
$EB45:    00            trap
$EB46:    00            trap
$EB47:    00            trap
$EB48:    00            trap
$EB49:    00            trap
$EB4A:    00            trap
$EB4B:    00            trap
$EB4C:    00            trap
$EB4D:    00            trap
$EB4E:    00            trap
$EB4F:    00            trap
$EB50:    00            trap
$EB51:    00            trap
$EB52:    00            trap
$EB53:    00            trap
$EB54:    00            trap
$EB55:    00            trap
$EB56:    00            trap
$EB57:    00            trap
$EB58:    00            trap
$EB59:    00            trap
$EB5A:    00            trap
$EB5B:    00            trap
$EB5C:    00            trap
$EB5D:    00            trap
$EB5E:    00            trap
$EB5F:    00            trap
$EB60:    00            trap
$EB61:    00            trap
$EB62:    00            trap
$EB63:    00            trap
$EB64:    00            trap
$EB65:    00            trap
$EB66:    00            trap
$EB67:    00            trap
$EB68:    00            trap
$EB69:    00            trap
$EB6A:    00            trap
$EB6B:    00            trap
$EB6C:    00            trap
$EB6D:    00            trap
$EB6E:    00            trap
$EB6F:    00            trap
$EB70:    00            trap
$EB71:    00            trap
$EB72:    00            trap
$EB73:    00            trap
$EB74:    00            trap
$EB75:    00            trap
$EB76:    00            trap
$EB77:    00            trap
$EB78:    00            trap
$EB79:    00            trap
$EB7A:    00            trap
$EB7B:    00            trap
$EB7C:    00            trap
$EB7D:    00            trap
$EB7E:    00            trap
$EB7F:    00            trap
$EB80:    00            trap
$EB81:    00            trap
$EB82:    00            trap
$EB83:    00            trap
$EB84:    00            trap
$EB85:    00            trap
$EB86:    00            trap
$EB87:    00            trap
$EB88:    00            trap
$EB89:    00            trap
$EB8A:    00            trap
$EB8B:    00            trap
$EB8C:    00            trap
$EB8D:    00            trap
$EB8E:    00            trap
$EB8F:    00            trap
$EB90:    00            trap
$EB91:    00            trap
$EB92:    00            trap
$EB93:    00            trap
$EB94:    00            trap
$EB95:    00            trap
$EB96:    00            trap
$EB97:    00            trap
$EB98:    00            trap
$EB99:    00            trap
$EB9A:    00            trap
$EB9B:    00            trap
$EB9C:    00            trap
$EB9D:    00            trap
$EB9E:    00            trap
$EB9F:    00            trap
$EBA0:    00            trap
$EBA1:    00            trap
$EBA2:    00            trap
$EBA3:    00            trap
$EBA4:    00            trap
$EBA5:    00            trap
$EBA6:    00            trap
$EBA7:    00            trap
$EBA8:    00            trap
$EBA9:    00            trap
$EBAA:    00            trap
$EBAB:    00            trap
$EBAC:    00            trap
$EBAD:    00            trap
$EBAE:    00            trap
$EBAF:    00            trap
$EBB0:    00            trap
$EBB1:    00            trap
$EBB2:    00            trap
$EBB3:    00            trap
$EBB4:    00            trap
$EBB5:    00            trap
$EBB6:    00            trap
$EBB7:    00            trap
$EBB8:    00            trap
$EBB9:    00            trap
$EBBA:    00            trap
$EBBB:    00            trap
$EBBC:    00            trap
$EBBD:    00            trap
$EBBE:    00            trap
$EBBF:    00            trap
$EBC0:    00            trap
$EBC1:    00            trap
$EBC2:    00            trap
$EBC3:    00            trap
$EBC4:    00            trap
$EBC5:    00            trap
$EBC6:    00            trap
$EBC7:    00            trap
$EBC8:    00            trap
$EBC9:    00            trap
$EBCA:    00            trap
$EBCB:    00            trap
$EBCC:    00            trap
$EBCD:    00            trap
$EBCE:    00            trap
$EBCF:    00            trap
$EBD0:    00            trap
$EBD1:    00            trap
$EBD2:    00            trap
$EBD3:    00            trap
$EBD4:    00            trap
$EBD5:    00            trap
$EBD6:    00            trap
$EBD7:    00            trap
$EBD8:    00            trap
$EBD9:    00            trap
$EBDA:    00            trap
$EBDB:    00            trap
$EBDC:    00            trap
$EBDD:    00            trap
$EBDE:    00            trap
$EBDF:    00            trap
$EBE0:    00            trap
$EBE1:    00            trap
$EBE2:    00            trap
$EBE3:    00            trap
$EBE4:    00            trap
$EBE5:    00            trap
$EBE6:    00            trap
$EBE7:    00            trap
$EBE8:    00            trap
$EBE9:    00            trap
$EBEA:    00            trap
$EBEB:    00            trap
$EBEC:    00            trap
$EBED:    00            trap
$EBEE:    00            trap
$EBEF:    00            trap
$EBF0:    00            trap
$EBF1:    00            trap
$EBF2:    00            trap
$EBF3:    00            trap
$EBF4:    00            trap
$EBF5:    00            trap
$EBF6:    00            trap
$EBF7:    00            trap
$EBF8:    00            trap
$EBF9:    00            trap
$EBFA:    00            trap
$EBFB:    00            trap
$EBFC:    00            trap
$EBFD:    00            trap
$EBFE:    00            trap
$EBFF:    00            trap
$EC00:    00            trap
$EC01:    00            trap
$EC02:    00            trap
$EC03:    00            trap
$EC04:    00            trap
$EC05:    00            trap
$EC06:    00            trap
$EC07:    00            trap
$EC08:    00            trap
$EC09:    00            trap
$EC0A:    00            trap
$EC0B:    00            trap
$EC0C:    00            trap
$EC0D:    00            trap
$EC0E:    00            trap
$EC0F:    00            trap
$EC10:    00            trap
$EC11:    00            trap
$EC12:    00            trap
$EC13:    00            trap
$EC14:    00            trap
$EC15:    00            trap
$EC16:    00            trap
$EC17:    00            trap
$EC18:    00            trap
$EC19:    00            trap
$EC1A:    00            trap
$EC1B:    00            trap
$EC1C:    00            trap
$EC1D:    00            trap
$EC1E:    00            trap
$EC1F:    00            trap
$EC20:    00            trap
$EC21:    00            trap
$EC22:    00            trap
$EC23:    00            trap
$EC24:    00            trap
$EC25:    00            trap
$EC26:    00            trap
$EC27:    00            trap
$EC28:    00            trap
$EC29:    00            trap
$EC2A:    00            trap
$EC2B:    00            trap
$EC2C:    00            trap
$EC2D:    00            trap
$EC2E:    00            trap
$EC2F:    00            trap
$EC30:    00            trap
$EC31:    00            trap
$EC32:    00            trap
$EC33:    00            trap
$EC34:    00            trap
$EC35:    00            trap
$EC36:    00            trap
$EC37:    00            trap
$EC38:    00            trap
$EC39:    00            trap
$EC3A:    00            trap
$EC3B:    00            trap
$EC3C:    00            trap
$EC3D:    00            trap
$EC3E:    00            trap
$EC3F:    00            trap
$EC40:    00            trap
$EC41:    00            trap
$EC42:    00            trap
$EC43:    00            trap
$EC44:    00            trap
$EC45:    00            trap
$EC46:    00            trap
$EC47:    00            trap
$EC48:    00            trap
$EC49:    00            trap
$EC4A:    00            trap
$EC4B:    00            trap
$EC4C:    00            trap
$EC4D:    00            trap
$EC4E:    00            trap
$EC4F:    00            trap
$EC50:    00            trap
$EC51:    00            trap
$EC52:    00            trap
$EC53:    00            trap
$EC54:    00            trap
$EC55:    00            trap
$EC56:    00            trap
$EC57:    00            trap
$EC58:    00            trap
$EC59:    00            trap
$EC5A:    00            trap
$EC5B:    00            trap
$EC5C:    00            trap
$EC5D:    00            trap
$EC5E:    00            trap
$EC5F:    00            trap
$EC60:    00            trap
$EC61:    00            trap
$EC62:    00            trap
$EC63:    00            trap
$EC64:    00            trap
$EC65:    00            trap
$EC66:    00            trap
$EC67:    00            trap
$EC68:    00            trap
$EC69:    00            trap
$EC6A:    00            trap
$EC6B:    00            trap
$EC6C:    00            trap
$EC6D:    00            trap
$EC6E:    00            trap
$EC6F:    00            trap
$EC70:    00            trap
$EC71:    00            trap
$EC72:    00            trap
$EC73:    00            trap
$EC74:    00            trap
$EC75:    00            trap
$EC76:    00            trap
$EC77:    00            trap
$EC78:    00            trap
$EC79:    00            trap
$EC7A:    00            trap
$EC7B:    00            trap
$EC7C:    00            trap
$EC7D:    00            trap
$EC7E:    00            trap
$EC7F:    00            trap
$EC80:    00            trap
$EC81:    00            trap
$EC82:    00            trap
$EC83:    00            trap
$EC84:    00            trap
$EC85:    00            trap
$EC86:    00            trap
$EC87:    00            trap
$EC88:    00            trap
$EC89:    00            trap
$EC8A:    00            trap
$EC8B:    00            trap
$EC8C:    00            trap
$EC8D:    00            trap
$EC8E:    00            trap
$EC8F:    00            trap
$EC90:    00            trap
$EC91:    00            trap
$EC92:    00            trap
$EC93:    00            trap
$EC94:    00            trap
$EC95:    00            trap
$EC96:    00            trap
$EC97:    00            trap
$EC98:    00            trap
$EC99:    00            trap
$EC9A:    00            trap
$EC9B:    00            trap
$EC9C:    00            trap
$EC9D:    00            trap
$EC9E:    00            trap
$EC9F:    00            trap
$ECA0:    00            trap
$ECA1:    00            trap
$ECA2:    00            trap
$ECA3:    00            trap
$ECA4:    00            trap
$ECA5:    00            trap
$ECA6:    00            trap
$ECA7:    00            trap
$ECA8:    00            trap
$ECA9:    00            trap
$ECAA:    00            trap
$ECAB:    00            trap
$ECAC:    00            trap
$ECAD:    00            trap
$ECAE:    00            trap
$ECAF:    00            trap
$ECB0:    00            trap
$ECB1:    00            trap
$ECB2:    00            trap
$ECB3:    00            trap
$ECB4:    00            trap
$ECB5:    00            trap
$ECB6:    00            trap
$ECB7:    00            trap
$ECB8:    00            trap
$ECB9:    00            trap
$ECBA:    00            trap
$ECBB:    00            trap
$ECBC:    00            trap
$ECBD:    00            trap
$ECBE:    00            trap
$ECBF:    00            trap
$ECC0:    00            trap
$ECC1:    00            trap
$ECC2:    00            trap
$ECC3:    00            trap
$ECC4:    00            trap
$ECC5:    00            trap
$ECC6:    00            trap
$ECC7:    00            trap
$ECC8:    00            trap
$ECC9:    00            trap
$ECCA:    00            trap
$ECCB:    00            trap
$ECCC:    00            trap
$ECCD:    00            trap
$ECCE:    00            trap
$ECCF:    00            trap
$ECD0:    00            trap
$ECD1:    00            trap
$ECD2:    00            trap
$ECD3:    00            trap
$ECD4:    00            trap
$ECD5:    00            trap
$ECD6:    00            trap
$ECD7:    00            trap
$ECD8:    00            trap
$ECD9:    00            trap
$ECDA:    00            trap
$ECDB:    00            trap
$ECDC:    00            trap
$ECDD:    00            trap
$ECDE:    00            trap
$ECDF:    00            trap
$ECE0:    00            trap
$ECE1:    00            trap
$ECE2:    00            trap
$ECE3:    00            trap
$ECE4:    00            trap
$ECE5:    00            trap
$ECE6:    00            trap
$ECE7:    00            trap
$ECE8:    00            trap
$ECE9:    00            trap
$ECEA:    00            trap
$ECEB:    00            trap
$ECEC:    00            trap
$ECED:    00            trap
$ECEE:    00            trap
$ECEF:    00            trap
$ECF0:    00            trap
$ECF1:    00            trap
$ECF2:    00            trap
$ECF3:    00            trap
$ECF4:    00            trap
$ECF5:    00            trap
$ECF6:    00            trap
$ECF7:    00            trap
$ECF8:    00            trap
$ECF9:    00            trap
$ECFA:    00            trap
$ECFB:    00            trap
$ECFC:    00            trap
$ECFD:    00            trap
$ECFE:    00            trap
$ECFF:    00            trap
$ED00:    00            trap
$ED01:    00            trap
$ED02:    00            trap
$ED03:    00            trap
$ED04:    00            trap
$ED05:    00            trap
$ED06:    00            trap
$ED07:    00            trap
$ED08:    00            trap
$ED09:    00            trap
$ED0A:    00            trap
$ED0B:    00            trap
$ED0C:    00            trap
$ED0D:    00            trap
$ED0E:    00            trap
$ED0F:    00            trap
$ED10:    00            trap
$ED11:    00            trap
$ED12:    00            trap
$ED13:    00            trap
$ED14:    00            trap
$ED15:    00            trap
$ED16:    00            trap
$ED17:    00            trap
$ED18:    00            trap
$ED19:    00            trap
$ED1A:    00            trap
$ED1B:    00            trap
$ED1C:    00            trap
$ED1D:    00            trap
$ED1E:    00            trap
$ED1F:    00            trap
$ED20:    00            trap
$ED21:    00            trap
$ED22:    00            trap
$ED23:    00            trap
$ED24:    00            trap
$ED25:    00            trap
$ED26:    00            trap
$ED27:    00            trap
$ED28:    00            trap
$ED29:    00            trap
$ED2A:    00            trap
$ED2B:    00            trap
$ED2C:    00            trap
$ED2D:    00            trap
$ED2E:    00            trap
$ED2F:    00            trap
$ED30:    00            trap
$ED31:    00            trap
$ED32:    00            trap
$ED33:    00            trap
$ED34:    00            trap
$ED35:    00            trap
$ED36:    00            trap
$ED37:    00            trap
$ED38:    00            trap
$ED39:    00            trap
$ED3A:    00            trap
$ED3B:    00            trap
$ED3C:    00            trap
$ED3D:    00            trap
$ED3E:    00            trap
$ED3F:    00            trap
$ED40:    00            trap
$ED41:    00            trap
$ED42:    00            trap
$ED43:    00            trap
$ED44:    00            trap
$ED45:    00            trap
$ED46:    00            trap
$ED47:    00            trap
$ED48:    00            trap
$ED49:    00            trap
$ED4A:    00            trap
$ED4B:    00            trap
$ED4C:    00            trap
$ED4D:    00            trap
$ED4E:    00            trap
$ED4F:    00            trap
$ED50:    00            trap
$ED51:    00            trap
$ED52:    00            trap
$ED53:    00            trap
$ED54:    00            trap
$ED55:    00            trap
$ED56:    00            trap
$ED57:    00            trap
$ED58:    00            trap
$ED59:    00            trap
$ED5A:    00            trap
$ED5B:    00            trap
$ED5C:    00            trap
$ED5D:    00            trap
$ED5E:    00            trap
$ED5F:    00            trap
$ED60:    00            trap
$ED61:    00            trap
$ED62:    00            trap
$ED63:    00            trap
$ED64:    00            trap
$ED65:    00            trap
$ED66:    00            trap
$ED67:    00            trap
$ED68:    00            trap
$ED69:    00            trap
$ED6A:    00            trap
$ED6B:    00            trap
$ED6C:    00            trap
$ED6D:    00            trap
$ED6E:    00            trap
$ED6F:    00            trap
$ED70:    00            trap
$ED71:    00            trap
$ED72:    00            trap
$ED73:    00            trap
$ED74:    00            trap
$ED75:    00            trap
$ED76:    00            trap
$ED77:    00            trap
$ED78:    00            trap
$ED79:    00            trap
$ED7A:    00            trap
$ED7B:    00            trap
$ED7C:    00            trap
$ED7D:    00            trap
$ED7E:    00            trap
$ED7F:    00            trap
$ED80:    00            trap
$ED81:    00            trap
$ED82:    00            trap
$ED83:    00            trap
$ED84:    00            trap
$ED85:    00            trap
$ED86:    00            trap
$ED87:    00            trap
$ED88:    00            trap
$ED89:    00            trap
$ED8A:    00            trap
$ED8B:    00            trap
$ED8C:    00            trap
$ED8D:    00            trap
$ED8E:    00            trap
$ED8F:    00            trap
$ED90:    00            trap
$ED91:    00            trap
$ED92:    00            trap
$ED93:    00            trap
$ED94:    00            trap
$ED95:    00            trap
$ED96:    00            trap
$ED97:    00            trap
$ED98:    00            trap
$ED99:    00            trap
$ED9A:    00            trap
$ED9B:    00            trap
$ED9C:    00            trap
$ED9D:    00            trap
$ED9E:    00            trap
$ED9F:    00            trap
$EDA0:    00            trap
$EDA1:    00            trap
$EDA2:    00            trap
$EDA3:    00            trap
$EDA4:    00            trap
$EDA5:    00            trap
$EDA6:    00            trap
$EDA7:    00            trap
$EDA8:    00            trap
$EDA9:    00            trap
$EDAA:    00            trap
$EDAB:    00            trap
$EDAC:    00            trap
$EDAD:    00            trap
$EDAE:    00            trap
$EDAF:    00            trap
$EDB0:    00            trap
$EDB1:    00            trap
$EDB2:    00            trap
$EDB3:    00            trap
$EDB4:    00            trap
$EDB5:    00            trap
$EDB6:    00            trap
$EDB7:    00            trap
$EDB8:    00            trap
$EDB9:    00            trap
$EDBA:    00            trap
$EDBB:    00            trap
$EDBC:    00            trap
$EDBD:    00            trap
$EDBE:    00            trap
$EDBF:    00            trap
$EDC0:    00            trap
$EDC1:    00            trap
$EDC2:    00            trap
$EDC3:    00            trap
$EDC4:    00            trap
$EDC5:    00            trap
$EDC6:    00            trap
$EDC7:    00            trap
$EDC8:    00            trap
$EDC9:    00            trap
$EDCA:    00            trap
$EDCB:    00            trap
$EDCC:    00            trap
$EDCD:    00            trap
$EDCE:    00            trap
$EDCF:    00            trap
$EDD0:    00            trap
$EDD1:    00            trap
$EDD2:    00            trap
$EDD3:    00            trap
$EDD4:    00            trap
$EDD5:    00            trap
$EDD6:    00            trap
$EDD7:    00            trap
$EDD8:    00            trap
$EDD9:    00            trap
$EDDA:    00            trap
$EDDB:    00            trap
$EDDC:    00            trap
$EDDD:    00            trap
$EDDE:    00            trap
$EDDF:    00            trap
$EDE0:    00            trap
$EDE1:    00            trap
$EDE2:    00            trap
$EDE3:    00            trap
$EDE4:    00            trap
$EDE5:    00            trap
$EDE6:    00            trap
$EDE7:    00            trap
$EDE8:    00            trap
$EDE9:    00            trap
$EDEA:    00            trap
$EDEB:    00            trap
$EDEC:    00            trap
$EDED:    00            trap
$EDEE:    00            trap
$EDEF:    00            trap
$EDF0:    00            trap
$EDF1:    00            trap
$EDF2:    00            trap
$EDF3:    00            trap
$EDF4:    00            trap
$EDF5:    00            trap
$EDF6:    00            trap
$EDF7:    00            trap
$EDF8:    00            trap
$EDF9:    00            trap
$EDFA:    00            trap
$EDFB:    00            trap
$EDFC:    00            trap
$EDFD:    00            trap
$EDFE:    00            trap
$EDFF:    00            trap
$EE00:    00            trap
$EE01:    00            trap
$EE02:    00            trap
$EE03:    00            trap
$EE04:    00            trap
$EE05:    00            trap
$EE06:    00            trap
$EE07:    00            trap
$EE08:    00            trap
$EE09:    00            trap
$EE0A:    00            trap
$EE0B:    00            trap
$EE0C:    00            trap
$EE0D:    00            trap
$EE0E:    00            trap
$EE0F:    00            trap
$EE10:    00            trap
$EE11:    00            trap
$EE12:    00            trap
$EE13:    00            trap
$EE14:    00            trap
$EE15:    00            trap
$EE16:    00            trap
$EE17:    00            trap
$EE18:    00            trap
$EE19:    00            trap
$EE1A:    00            trap
$EE1B:    00            trap
$EE1C:    00            trap
$EE1D:    00            trap
$EE1E:    00            trap
$EE1F:    00            trap
$EE20:    00            trap
$EE21:    00            trap
$EE22:    00            trap
$EE23:    00            trap
$EE24:    00            trap
$EE25:    00            trap
$EE26:    00            trap
$EE27:    00            trap
$EE28:    00            trap
$EE29:    00            trap
$EE2A:    00            trap
$EE2B:    00            trap
$EE2C:    00            trap
$EE2D:    00            trap
$EE2E:    00            trap
$EE2F:    00            trap
$EE30:    00            trap
$EE31:    00            trap
$EE32:    00            trap
$EE33:    00            trap
$EE34:    00            trap
$EE35:    00            trap
$EE36:    00            trap
$EE37:    00            trap
$EE38:    00            trap
$EE39:    00            trap
$EE3A:    00            trap
$EE3B:    00            trap
$EE3C:    00            trap
$EE3D:    00            trap
$EE3E:    00            trap
$EE3F:    00            trap
$EE40:    00            trap
$EE41:    00            trap
$EE42:    00            trap
$EE43:    00            trap
$EE44:    00            trap
$EE45:    00            trap
$EE46:    00            trap
$EE47:    00            trap
$EE48:    00            trap
$EE49:    00            trap
$EE4A:    00            trap
$EE4B:    00            trap
$EE4C:    00            trap
$EE4D:    00            trap
$EE4E:    00            trap
$EE4F:    00            trap
$EE50:    00            trap
$EE51:    00            trap
$EE52:    00            trap
$EE53:    00            trap
$EE54:    00            trap
$EE55:    00            trap
$EE56:    00            trap
$EE57:    00            trap
$EE58:    00            trap
$EE59:    00            trap
$EE5A:    00            trap
$EE5B:    00            trap
$EE5C:    00            trap
$EE5D:    00            trap
$EE5E:    00            trap
$EE5F:    00            trap
$EE60:    00            trap
$EE61:    00            trap
$EE62:    00            trap
$EE63:    00            trap
$EE64:    00            trap
$EE65:    00            trap
$EE66:    00            trap
$EE67:    00            trap
$EE68:    00            trap
$EE69:    00            trap
$EE6A:    00            trap
$EE6B:    00            trap
$EE6C:    00            trap
$EE6D:    00            trap
$EE6E:    00            trap
$EE6F:    00            trap
$EE70:    00            trap
$EE71:    00            trap
$EE72:    00            trap
$EE73:    00            trap
$EE74:    00            trap
$EE75:    00            trap
$EE76:    00            trap
$EE77:    00            trap
$EE78:    00            trap
$EE79:    00            trap
$EE7A:    00            trap
$EE7B:    00            trap
$EE7C:    00            trap
$EE7D:    00            trap
$EE7E:    00            trap
$EE7F:    00            trap
$EE80:    00            trap
$EE81:    00            trap
$EE82:    00            trap
$EE83:    00            trap
$EE84:    00            trap
$EE85:    00            trap
$EE86:    00            trap
$EE87:    00            trap
$EE88:    00            trap
$EE89:    00            trap
$EE8A:    00            trap
$EE8B:    00            trap
$EE8C:    00            trap
$EE8D:    00            trap
$EE8E:    00            trap
$EE8F:    00            trap
$EE90:    00            trap
$EE91:    00            trap
$EE92:    00            trap
$EE93:    00            trap
$EE94:    00            trap
$EE95:    00            trap
$EE96:    00            trap
$EE97:    00            trap
$EE98:    00            trap
$EE99:    00            trap
$EE9A:    00            trap
$EE9B:    00            trap
$EE9C:    00            trap
$EE9D:    00            trap
$EE9E:    00            trap
$EE9F:    00            trap
$EEA0:    00            trap
$EEA1:    00            trap
$EEA2:    00            trap
$EEA3:    00            trap
$EEA4:    00            trap
$EEA5:    00            trap
$EEA6:    00            trap
$EEA7:    00            trap
$EEA8:    00            trap
$EEA9:    00            trap
$EEAA:    00            trap
$EEAB:    00            trap
$EEAC:    00            trap
$EEAD:    00            trap
$EEAE:    00            trap
$EEAF:    00            trap
$EEB0:    00            trap
$EEB1:    00            trap
$EEB2:    00            trap
$EEB3:    00            trap
$EEB4:    00            trap
$EEB5:    00            trap
$EEB6:    00            trap
$EEB7:    00            trap
$EEB8:    00            trap
$EEB9:    00            trap
$EEBA:    00            trap
$EEBB:    00            trap
$EEBC:    00            trap
$EEBD:    00            trap
$EEBE:    00            trap
$EEBF:    00            trap
$EEC0:    00            trap
$EEC1:    00            trap
$EEC2:    00            trap
$EEC3:    00            trap
$EEC4:    00            trap
$EEC5:    00            trap
$EEC6:    00            trap
$EEC7:    00            trap
$EEC8:    00            trap
$EEC9:    00            trap
$EECA:    00            trap
$EECB:    00            trap
$EECC:    00            trap
$EECD:    00            trap
$EECE:    00            trap
$EECF:    00            trap
$EED0:    00            trap
$EED1:    00            trap
$EED2:    00            trap
$EED3:    00            trap
$EED4:    00            trap
$EED5:    00            trap
$EED6:    00            trap
$EED7:    00            trap
$EED8:    00            trap
$EED9:    00            trap
$EEDA:    00            trap
$EEDB:    00            trap
$EEDC:    00            trap
$EEDD:    00            trap
$EEDE:    00            trap
$EEDF:    00            trap
$EEE0:    00            trap
$EEE1:    00            trap
$EEE2:    00            trap
$EEE3:    00            trap
$EEE4:    00            trap
$EEE5:    00            trap
$EEE6:    00            trap
$EEE7:    00            trap
$EEE8:    00            trap
$EEE9:    00            trap
$EEEA:    00            trap
$EEEB:    00            trap
$EEEC:    00            trap
$EEED:    00            trap
$EEEE:    00            trap
$EEEF:    00            trap
$EEF0:    00            trap
$EEF1:    00            trap
$EEF2:    00            trap
$EEF3:    00            trap
$EEF4:    00            trap
$EEF5:    00            trap
$EEF6:    00            trap
$EEF7:    00            trap
$EEF8:    00            trap
$EEF9:    00            trap
$EEFA:    00            trap
$EEFB:    00            trap
$EEFC:    00            trap
$EEFD:    00            trap
$EEFE:    00            trap
$EEFF:    00            trap
$EF00:    00            trap
$EF01:    00            trap
$EF02:    00            trap
$EF03:    00            trap
$EF04:    00            trap
$EF05:    00            trap
$EF06:    00            trap
$EF07:    00            trap
$EF08:    00            trap
$EF09:    00            trap
$EF0A:    00            trap
$EF0B:    00            trap
$EF0C:    00            trap
$EF0D:    00            trap
$EF0E:    00            trap
$EF0F:    00            trap
$EF10:    00            trap
$EF11:    00            trap
$EF12:    00            trap
$EF13:    00            trap
$EF14:    00            trap
$EF15:    00            trap
$EF16:    00            trap
$EF17:    00            trap
$EF18:    00            trap
$EF19:    00            trap
$EF1A:    00            trap
$EF1B:    00            trap
$EF1C:    00            trap
$EF1D:    00            trap
$EF1E:    00            trap
$EF1F:    00            trap
$EF20:    00            trap
$EF21:    00            trap
$EF22:    00            trap
$EF23:    00            trap
$EF24:    00            trap
$EF25:    00            trap
$EF26:    00            trap
$EF27:    00            trap
$EF28:    00            trap
$EF29:    00            trap
$EF2A:    00            trap
$EF2B:    00            trap
$EF2C:    00            trap
$EF2D:    00            trap
$EF2E:    00            trap
$EF2F:    00            trap
$EF30:    00            trap
$EF31:    00            trap
$EF32:    00            trap
$EF33:    00            trap
$EF34:    00            trap
$EF35:    00            trap
$EF36:    00            trap
$EF37:    00            trap
$EF38:    00            trap
$EF39:    00            trap
$EF3A:    00            trap
$EF3B:    00            trap
$EF3C:    00            trap
$EF3D:    00            trap
$EF3E:    00            trap
$EF3F:    00            trap
$EF40:    00            trap
$EF41:    00            trap
$EF42:    00            trap
$EF43:    00            trap
$EF44:    00            trap
$EF45:    00            trap
$EF46:    00            trap
$EF47:    00            trap
$EF48:    00            trap
$EF49:    00            trap
$EF4A:    00            trap
$EF4B:    00            trap
$EF4C:    00            trap
$EF4D:    00            trap
$EF4E:    00            trap
$EF4F:    00            trap
$EF50:    00            trap
$EF51:    00            trap
$EF52:    00            trap
$EF53:    00            trap
$EF54:    00            trap
$EF55:    00            trap
$EF56:    00            trap
$EF57:    00            trap
$EF58:    00            trap
$EF59:    00            trap
$EF5A:    00            trap
$EF5B:    00            trap
$EF5C:    00            trap
$EF5D:    00            trap
$EF5E:    00            trap
$EF5F:    00            trap
$EF60:    00            trap
$EF61:    00            trap
$EF62:    00            trap
$EF63:    00            trap
$EF64:    00            trap
$EF65:    00            trap
$EF66:    00            trap
$EF67:    00            trap
$EF68:    00            trap
$EF69:    00            trap
$EF6A:    00            trap
$EF6B:    00            trap
$EF6C:    00            trap
$EF6D:    00            trap
$EF6E:    00            trap
$EF6F:    00            trap
$EF70:    00            trap
$EF71:    00            trap
$EF72:    00            trap
$EF73:    00            trap
$EF74:    00            trap
$EF75:    00            trap
$EF76:    00            trap
$EF77:    00            trap
$EF78:    00            trap
$EF79:    00            trap
$EF7A:    00            trap
$EF7B:    00            trap
$EF7C:    00            trap
$EF7D:    00            trap
$EF7E:    00            trap
$EF7F:    00            trap
$EF80:    00            trap
$EF81:    00            trap
$EF82:    00            trap
$EF83:    00            trap
$EF84:    00            trap
$EF85:    00            trap
$EF86:    00            trap
$EF87:    00            trap
$EF88:    00            trap
$EF89:    00            trap
$EF8A:    00            trap
$EF8B:    00            trap
$EF8C:    00            trap
$EF8D:    00            trap
$EF8E:    00            trap
$EF8F:    00            trap
$EF90:    00            trap
$EF91:    00            trap
$EF92:    00            trap
$EF93:    00            trap
$EF94:    00            trap
$EF95:    00            trap
$EF96:    00            trap
$EF97:    00            trap
$EF98:    00            trap
$EF99:    00            trap
$EF9A:    00            trap
$EF9B:    00            trap
$EF9C:    00            trap
$EF9D:    00            trap
$EF9E:    00            trap
$EF9F:    00            trap
$EFA0:    00            trap
$EFA1:    00            trap
$EFA2:    00            trap
$EFA3:    00            trap
$EFA4:    00            trap
$EFA5:    00            trap
$EFA6:    00            trap
$EFA7:    00            trap
$EFA8:    00            trap
$EFA9:    00            trap
$EFAA:    00            trap
$EFAB:    00            trap
$EFAC:    00            trap
$EFAD:    00            trap
$EFAE:    00            trap
$EFAF:    00            trap
$EFB0:    00            trap
$EFB1:    00            trap
$EFB2:    00            trap
$EFB3:    00            trap
$EFB4:    00            trap
$EFB5:    00            trap
$EFB6:    00            trap
$EFB7:    00            trap
$EFB8:    00            trap
$EFB9:    00            trap
$EFBA:    00            trap
$EFBB:    00            trap
$EFBC:    00            trap
$EFBD:    00            trap
$EFBE:    00            trap
$EFBF:    00            trap
$EFC0:    00            trap
$EFC1:    00            trap
$EFC2:    00            trap
$EFC3:    00            trap
$EFC4:    00            trap
$EFC5:    00            trap
$EFC6:    00            trap
$EFC7:    00            trap
$EFC8:    00            trap
$EFC9:    00            trap
$EFCA:    00            trap
$EFCB:    00            trap
$EFCC:    00            trap
$EFCD:    00            trap
$EFCE:    00            trap
$EFCF:    00            trap
$EFD0:    00            trap
$EFD1:    00            trap
$EFD2:    00            trap
$EFD3:    00            trap
$EFD4:    00            trap
$EFD5:    00            trap
$EFD6:    00            trap
$EFD7:    00            trap
$EFD8:    00            trap
$EFD9:    00            trap
$EFDA:    00            trap
$EFDB:    00            trap
$EFDC:    00            trap
$EFDD:    00            trap
$EFDE:    00            trap
$EFDF:    00            trap
$EFE0:    00            trap
$EFE1:    00            trap
$EFE2:    00            trap
$EFE3:    00            trap
$EFE4:    00            trap
$EFE5:    00            trap
$EFE6:    00            trap
$EFE7:    00            trap
$EFE8:    00            trap
$EFE9:    00            trap
$EFEA:    00            trap
$EFEB:    00            trap
$EFEC:    00            trap
$EFED:    00            trap
$EFEE:    00            trap
$EFEF:    00            trap
$EFF0:    00            trap
$EFF1:    00            trap
$EFF2:    00            trap
$EFF3:    00            trap
$EFF4:    00            trap
$EFF5:    00            trap
$EFF6:    00            trap
$EFF7:    00            trap
$EFF8:    00            trap
$EFF9:    00            trap
$EFFA:    00            trap
$EFFB:    00            trap
$EFFC:    00            trap
$EFFD:    00            trap
$EFFE:    00            trap
$EFFF:    00            trap
$F000:    09 00 FF      mov sp, $FF00
$F003:    10 F0 FF      mov r0, $FFF0
$F006:    11 98 00      mov r1, $0098
$F009:    61            mov byte ptr [r0], low(r1)
$F00A:    A8            inc r0
$F00B:    11 7E F3      mov r1, $F37E
$F00E:    71            mov [r0], r1
$F00F:    12 9C F6      mov r2, $F69C
$F012:    99 08 00      call $0008    # <PrintStr>
$F015:    12 2D F2      mov r2, $F22D
$F018:    99 08 00      call $0008    # <PrintStr>
$F01B:    13 10 00      mov r3, $0010
$F01E:    12 DB F1      mov r2, $F1DB
$F021:    99 30 00      call $0030    # <ReadStr>
$F024:    12 1E F1      mov r2, $F11E
$F027:    42            mov r0, byte ptr [r2]
$F028:    A2 00 00      cmp r0, $0000
$F02B:    9C AC F0      je $F0AC
$F02E:    13 DB F1      mov r3, $F1DB
$F031:    92            push r2
$F032:    99 10 00      call $0010    # <StrCmp>
$F035:    96            pop r2
$F036:    A2 00 00      cmp r0, $0000
$F039:    9C 42 F0      je $F042
$F03C:    E2 50 00      add r2, $0050
$F03F:    98 27 F0      jmp $F027    # <None>
$F042:    E2 10 00      add r2, $0010
$F045:    92            push r2
$F046:    99 04 F1      call $F104    # <None>
$F049:    12 38 F2      mov r2, $F238
$F04C:    99 08 00      call $0008    # <PrintStr>
$F04F:    13 30 00      mov r3, $0030
$F052:    12 EC F1      mov r2, $F1EC
$F055:    99 30 00      call $0030    # <ReadStr>
$F058:    99 04 F1      call $F104    # <None>
$F05B:    10 01 00      mov r0, $0001
$F05E:    11 00 C0      mov r1, $C000
$F061:    06 04         swi 4
$F063:    96            pop r2
$F064:    13 EC F1      mov r3, $F1EC
$F067:    93            push r3
$F068:    11 00 C0      mov r1, $C000
$F06B:    43            mov r0, byte ptr [r3]
$F06C:    34            add r1, r0
$F06D:    13 00 00      mov r3, $0000
$F070:    41            mov r0, byte ptr [r1]
$F071:    3C            add r3, r0
$F072:    E1 00 01      add r1, $0100
$F075:    41            mov r0, byte ptr [r1]
$F076:    3C            add r3, r0
$F077:    E1 00 01      add r1, $0100
$F07A:    41            mov r0, byte ptr [r1]
$F07B:    3C            add r3, r0
$F07C:    E1 00 01      add r1, $0100
$F07F:    41            mov r0, byte ptr [r1]
$F080:    3C            add r3, r0
$F081:    23            mov r0, r3
$F082:    CD FF 00      and r0, $00FF
$F085:    46            mov r1, byte ptr [r2]
$F086:    81            cmp r0, r1
$F087:    9D B8 F0      jne $F0B8
$F08A:    97            pop r3
$F08B:    99 C1 F0      call $F0C1    # <None>
$F08E:    AA            inc r2
$F08F:    AB            inc r3
$F090:    42            mov r0, byte ptr [r2]
$F091:    A2 00 00      cmp r0, $0000
$F094:    9C 9A F0      je $F09A
$F097:    98 67 F0      jmp $F067    # <None>
$F09A:    12 B3 F2      mov r2, $F2B3
$F09D:    99 08 00      call $0008    # <PrintStr>
$F0A0:    00            trap
$F0A1:    12 6B F8      mov r2, $F86B
$F0A4:    99 08 00      call $0008    # <PrintStr>
$F0A7:    06 03         swi 3
$F0A9:    98 A9 F0      jmp $F0A9    # <None>
$F0AC:    99 04 F1      call $F104    # <None>
$F0AF:    12 78 F2      mov r2, $F278
$F0B2:    99 08 00      call $0008    # <PrintStr>
$F0B5:    98 15 F0      jmp $F015    # <None>
$F0B8:    12 98 F2      mov r2, $F298
$F0BB:    99 08 00      call $0008    # <PrintStr>
$F0BE:    98 15 F0      jmp $F015    # <None>
$F0C1:    B0 00 C0      mov r0, byte ptr [$C000]
$F0C4:    B8 00 F1      mov byte ptr [$F100], low(r0)
$F0C7:    B0 00 C1      mov r0, byte ptr [$C100]
$F0CA:    B8 01 F1      mov byte ptr [$F101], low(r0)
$F0CD:    B0 00 C2      mov r0, byte ptr [$C200]
$F0D0:    B8 02 F1      mov byte ptr [$F102], low(r0)
$F0D3:    B0 00 C3      mov r0, byte ptr [$C300]
$F0D6:    B8 03 F1      mov byte ptr [$F103], low(r0)
$F0D9:    11 00 C0      mov r1, $C000
$F0DC:    A9            inc r1
$F0DD:    41            mov r0, byte ptr [r1]
$F0DE:    AD            dec r1
$F0DF:    64            mov byte ptr [r1], low(r0)
$F0E0:    A9            inc r1
$F0E1:    A3 FF C3      cmp r1, $C3FF
$F0E4:    9D DC F0      jne $F0DC
$F0E7:    B0 00 F1      mov r0, byte ptr [$F100]
$F0EA:    B8 FF C0      mov byte ptr [$C0FF], low(r0)
$F0ED:    B0 01 F1      mov r0, byte ptr [$F101]
$F0F0:    B8 FF C1      mov byte ptr [$C1FF], low(r0)
$F0F3:    B0 02 F1      mov r0, byte ptr [$F102]
$F0F6:    B8 FF C2      mov byte ptr [$C2FF], low(r0)
$F0F9:    B0 03 F1      mov r0, byte ptr [$F103]
$F0FC:    B8 FF C3      mov byte ptr [$C3FF], low(r0)
$F0FF:    05            ret
$F100:    9D 90 D1      jne $D190
$F103:    98 92 12      jmp $1292    # <None>
$F106:    65            mov byte ptr [r1], low(r1)
$F107:    F2            fixme: unknown opcode F2
$F108:    99 08 00      call $0008    # <PrintStr>
$F10B:    96            pop r2
$F10C:    10 FF 3F      mov r0, $3FFF
$F10F:    08            fixme: unknown opcode 08
$F110:    08            fixme: unknown opcode 08
$F111:    08            fixme: unknown opcode 08
$F112:    08            fixme: unknown opcode 08
$F113:    08            fixme: unknown opcode 08
$F114:    08            fixme: unknown opcode 08
$F115:    08            fixme: unknown opcode 08
$F116:    AC            dec r0
$F117:    A2 00 00      cmp r0, $0000
$F11A:    9D 0F F1      jne $F10F
$F11D:    05            ret
$F11E:    61            mov byte ptr [r0], low(r1)
$F11F:    78            mov [r2], r0
$F120:    2E            mov r3, r2
$F121:    61            mov byte ptr [r0], low(r1)
$F122:    72            mov [r0], r2
$F123:    77            mov [r1], r3
$F124:    65            mov byte ptr [r1], low(r1)
$F125:    6E            mov byte ptr [r3], low(r2)
$F126:    00            trap
$F127:    00            trap
$F128:    00            trap
$F129:    00            trap
$F12A:    00            trap
$F12B:    00            trap
$F12C:    00            trap
$F12D:    00            trap
$F12E:    C6            fixme: unknown opcode C6
$F12F:    44            mov r1, byte ptr [r0]
$F130:    99 E3 E9      call $E9E3    # <None>
$F133:    19             === ILLEGAL OPCODE ===
$F134:    0D             === ILLEGAL OPCODE ===
$F135:    07 0D 12       ==== secret opcode 0x7 ====
$F138:    79            mov [r2], r1
$F139:    00            trap
$F13A:    00            trap
$F13B:    00            trap
$F13C:    00            trap
$F13D:    00            trap
$F13E:    00            trap
$F13F:    00            trap
$F140:    00            trap
$F141:    00            trap
$F142:    00            trap
$F143:    00            trap
$F144:    00            trap
$F145:    00            trap
$F146:    00            trap
$F147:    00            trap
$F148:    00            trap
$F149:    00            trap
$F14A:    00            trap
$F14B:    00            trap
$F14C:    00            trap
$F14D:    00            trap
$F14E:    00            trap
$F14F:    00            trap
$F150:    00            trap
$F151:    00            trap
$F152:    00            trap
$F153:    00            trap
$F154:    00            trap
$F155:    00            trap
$F156:    00            trap
$F157:    00            trap
$F158:    00            trap
$F159:    00            trap
$F15A:    00            trap
$F15B:    00            trap
$F15C:    00            trap
$F15D:    00            trap
$F15E:    00            trap
$F15F:    00            trap
$F160:    00            trap
$F161:    00            trap
$F162:    00            trap
$F163:    00            trap
$F164:    00            trap
$F165:    00            trap
$F166:    00            trap
$F167:    00            trap
$F168:    00            trap
$F169:    00            trap
$F16A:    00            trap
$F16B:    00            trap
$F16C:    00            trap
$F16D:    00            trap
$F16E:    73            mov [r0], r3
$F16F:    62            mov byte ptr [r0], low(r2)
$F170:    77            mov [r1], r3
$F171:    2E            mov r3, r2
$F172:    73            mov [r0], r3
$F173:    68            mov byte ptr [r2], low(r0)
$F174:    61            mov byte ptr [r0], low(r1)
$F175:    64            mov byte ptr [r1], low(r0)
$F176:    6F            mov byte ptr [r3], low(r3)
$F177:    77            mov [r1], r3
$F178:    00            trap
$F179:    00            trap
$F17A:    00            trap
$F17B:    00            trap
$F17C:    00            trap
$F17D:    00            trap
$F17E:    E9            fixme: unknown opcode E9
$F17F:    22            mov r0, r2
$F180:    D8            xor r0, r0
$F181:    7C            mov [r3], r0
$F182:    3C            add r3, r0
$F183:    07 54 2D       ==== secret opcode 0x7 ====
$F186:    5E            mov r3, [r2]
$F187:    53            mov r0, [r3]
$F188:    6A            mov byte ptr [r2], low(r2)
$F189:    FF            fixme: unknown opcode FF
$F18A:    80            cmp r0, r0
$F18B:    5E            mov r3, [r2]
$F18C:    CD C8 CF      and r0, $CFC8
$F18F:    FF            fixme: unknown opcode FF
$F190:    44            mov r1, byte ptr [r0]
$F191:    74            mov [r1], r0
$F192:    C8            fixme: unknown opcode C8
$F193:    D8            xor r0, r0
$F194:    4B            mov r2, byte ptr [r3]
$F195:    00            trap
$F196:    00            trap
$F197:    00            trap
$F198:    00            trap
$F199:    00            trap
$F19A:    00            trap
$F19B:    00            trap
$F19C:    00            trap
$F19D:    00            trap
$F19E:    00            trap
$F19F:    00            trap
$F1A0:    00            trap
$F1A1:    00            trap
$F1A2:    00            trap
$F1A3:    00            trap
$F1A4:    00            trap
$F1A5:    00            trap
$F1A6:    00            trap
$F1A7:    00            trap
$F1A8:    00            trap
$F1A9:    00            trap
$F1AA:    00            trap
$F1AB:    00            trap
$F1AC:    00            trap
$F1AD:    00            trap
$F1AE:    00            trap
$F1AF:    00            trap
$F1B0:    00            trap
$F1B1:    00            trap
$F1B2:    00            trap
$F1B3:    00            trap
$F1B4:    00            trap
$F1B5:    00            trap
$F1B6:    00            trap
$F1B7:    00            trap
$F1B8:    00            trap
$F1B9:    00            trap
$F1BA:    00            trap
$F1BB:    00            trap
$F1BC:    00            trap
$F1BD:    00            trap
$F1BE:    00            trap
$F1BF:    00            trap
$F1C0:    00            trap
$F1C1:    00            trap
$F1C2:    00            trap
$F1C3:    00            trap
$F1C4:    00            trap
$F1C5:    00            trap
$F1C6:    00            trap
$F1C7:    00            trap
$F1C8:    00            trap
$F1C9:    00            trap
$F1CA:    00            trap
$F1CB:    00            trap
$F1CC:    00            trap
$F1CD:    00            trap
$F1CE:    00            trap
$F1CF:    00            trap
$F1D0:    00            trap
$F1D1:    00            trap
$F1D2:    00            trap
$F1D3:    00            trap
$F1D4:    00            trap
$F1D5:    00            trap
$F1D6:    00            trap
$F1D7:    00            trap
$F1D8:    00            trap
$F1D9:    00            trap
$F1DA:    00            trap
$F1DB:    61            mov byte ptr [r0], low(r1)
$F1DC:    78            mov [r2], r0
$F1DD:    2E            mov r3, r2
$F1DE:    61            mov byte ptr [r0], low(r1)
$F1DF:    72            mov [r0], r2
$F1E0:    77            mov [r1], r3
$F1E1:    65            mov byte ptr [r1], low(r1)
$F1E2:    6E            mov byte ptr [r3], low(r2)
$F1E3:    0A            mov r0, sp
$F1E4:    00            trap
$F1E5:    5F            mov r3, [r3]
$F1E6:    5F            mov r3, [r3]
$F1E7:    5F            mov r3, [r3]
$F1E8:    5F            mov r3, [r3]
$F1E9:    5F            mov r3, [r3]
$F1EA:    5F            mov r3, [r3]
$F1EB:    00            trap
$F1EC:    73            mov [r0], r3
$F1ED:    59            mov r2, [r1]
$F1EE:    70            mov [r0], r0
$F1EF:    69            mov byte ptr [r2], low(r1)
$F1F0:    42            mov r0, byte ptr [r2]
$F1F1:    3B            add r2, r3
$F1F2:    37            add r1, r3
$F1F3:    30            add r0, r0
$F1F4:    35            add r1, r1
$F1F5:    2A            mov r2, r2
$F1F6:    58            mov r2, [r0]
$F1F7:    0A            mov r0, sp
$F1F8:    00            trap
$F1F9:    5F            mov r3, [r3]
$F1FA:    5F            mov r3, [r3]
$F1FB:    5F            mov r3, [r3]
$F1FC:    5F            mov r3, [r3]
$F1FD:    5F            mov r3, [r3]
$F1FE:    5F            mov r3, [r3]
$F1FF:    5F            mov r3, [r3]
$F200:    5F            mov r3, [r3]
$F201:    5F            mov r3, [r3]
$F202:    5F            mov r3, [r3]
$F203:    5F            mov r3, [r3]
$F204:    5F            mov r3, [r3]
$F205:    5F            mov r3, [r3]
$F206:    5F            mov r3, [r3]
$F207:    5F            mov r3, [r3]
$F208:    5F            mov r3, [r3]
$F209:    5F            mov r3, [r3]
$F20A:    5F            mov r3, [r3]
$F20B:    5F            mov r3, [r3]
$F20C:    5F            mov r3, [r3]
$F20D:    5F            mov r3, [r3]
$F20E:    5F            mov r3, [r3]
$F20F:    5F            mov r3, [r3]
$F210:    5F            mov r3, [r3]
$F211:    5F            mov r3, [r3]
$F212:    5F            mov r3, [r3]
$F213:    5F            mov r3, [r3]
$F214:    5F            mov r3, [r3]
$F215:    5F            mov r3, [r3]
$F216:    5F            mov r3, [r3]
$F217:    5F            mov r3, [r3]
$F218:    5F            mov r3, [r3]
$F219:    5F            mov r3, [r3]
$F21A:    5F            mov r3, [r3]
$F21B:    5F            mov r3, [r3]
$F21C:    5F            mov r3, [r3]
$F21D:    5F            mov r3, [r3]
$F21E:    5F            mov r3, [r3]
$F21F:    5F            mov r3, [r3]
$F220:    5F            mov r3, [r3]
$F221:    5F            mov r3, [r3]
$F222:    5F            mov r3, [r3]
$F223:    5F            mov r3, [r3]
$F224:    5F            mov r3, [r3]
$F225:    5F            mov r3, [r3]
$F226:    5F            mov r3, [r3]
$F227:    5F            mov r3, [r3]
$F228:    5F            mov r3, [r3]
$F229:    5F            mov r3, [r3]
$F22A:    5F            mov r3, [r3]
$F22B:    5F            mov r3, [r3]
$F22C:    00            trap
$F22D:    55            mov r1, [r1]
$F22E:    73            mov [r0], r3
$F22F:    65            mov byte ptr [r1], low(r1)
$F230:    72            mov [r0], r2
$F231:    6E            mov byte ptr [r3], low(r2)
$F232:    61            mov byte ptr [r0], low(r1)
$F233:    6D            mov byte ptr [r3], low(r1)
$F234:    65            mov byte ptr [r1], low(r1)
$F235:    3A            add r2, r2
$F236:    20            mov r0, r0
$F237:    00            trap
$F238:    3E            add r3, r2
$F239:    3E            add r3, r2
$F23A:    20            mov r0, r0
$F23B:    55            mov r1, [r1]
$F23C:    73            mov [r0], r3
$F23D:    65            mov byte ptr [r1], low(r1)
$F23E:    72            mov [r0], r2
$F23F:    6E            mov byte ptr [r3], low(r2)
$F240:    61            mov byte ptr [r0], low(r1)
$F241:    6D            mov byte ptr [r3], low(r1)
$F242:    65            mov byte ptr [r1], low(r1)
$F243:    20            mov r0, r0
$F244:    4F            mov r3, byte ptr [r3]
$F245:    4B            mov r2, byte ptr [r3]
$F246:    2E            mov r3, r2
$F247:    20            mov r0, r0
$F248:    50            mov r0, [r0]
$F249:    61            mov byte ptr [r0], low(r1)
$F24A:    73            mov [r0], r3
$F24B:    73            mov [r0], r3
$F24C:    77            mov [r1], r3
$F24D:    6F            mov byte ptr [r3], low(r3)
$F24E:    72            mov [r0], r2
$F24F:    64            mov byte ptr [r1], low(r0)
$F250:    20            mov r0, r0
$F251:    72            mov [r0], r2
$F252:    65            mov byte ptr [r1], low(r1)
$F253:    71            mov [r0], r1
$F254:    75            mov [r1], r1
$F255:    69            mov byte ptr [r2], low(r1)
$F256:    72            mov [r0], r2
$F257:    65            mov byte ptr [r1], low(r1)
$F258:    64            mov byte ptr [r1], low(r0)
$F259:    0A            mov r0, sp
$F25A:    50            mov r0, [r0]
$F25B:    61            mov byte ptr [r0], low(r1)
$F25C:    73            mov [r0], r3
$F25D:    73            mov [r0], r3
$F25E:    77            mov [r1], r3
$F25F:    6F            mov byte ptr [r3], low(r3)
$F260:    72            mov [r0], r2
$F261:    64            mov byte ptr [r1], low(r0)
$F262:    3A            add r2, r2
$F263:    20            mov r0, r0
$F264:    00            trap
$F265:    3E            add r3, r2
$F266:    3E            add r3, r2
$F267:    20            mov r0, r0
$F268:    50            mov r0, [r0]
$F269:    6C            mov byte ptr [r3], low(r0)
$F26A:    65            mov byte ptr [r1], low(r1)
$F26B:    61            mov byte ptr [r0], low(r1)
$F26C:    73            mov [r0], r3
$F26D:    65            mov byte ptr [r1], low(r1)
$F26E:    20            mov r0, r0
$F26F:    77            mov [r1], r3
$F270:    61            mov byte ptr [r0], low(r1)
$F271:    69            mov byte ptr [r2], low(r1)
$F272:    74            mov [r1], r0
$F273:    2E            mov r3, r2
$F274:    2E            mov r3, r2
$F275:    2E            mov r3, r2
$F276:    0A            mov r0, sp
$F277:    00            trap
$F278:    3E            add r3, r2
$F279:    3E            add r3, r2
$F27A:    20            mov r0, r0
$F27B:    55            mov r1, [r1]
$F27C:    73            mov [r0], r3
$F27D:    65            mov byte ptr [r1], low(r1)
$F27E:    72            mov [r0], r2
$F27F:    20            mov r0, r0
$F280:    6E            mov byte ptr [r3], low(r2)
$F281:    6F            mov byte ptr [r3], low(r3)
$F282:    74            mov [r1], r0
$F283:    20            mov r0, r0
$F284:    66            mov byte ptr [r1], low(r2)
$F285:    6F            mov byte ptr [r3], low(r3)
$F286:    75            mov [r1], r1
$F287:    6E            mov byte ptr [r3], low(r2)
$F288:    64            mov byte ptr [r1], low(r0)
$F289:    20            mov r0, r0
$F28A:    69            mov byte ptr [r2], low(r1)
$F28B:    6E            mov byte ptr [r3], low(r2)
$F28C:    20            mov r0, r0
$F28D:    64            mov byte ptr [r1], low(r0)
$F28E:    61            mov byte ptr [r0], low(r1)
$F28F:    74            mov [r1], r0
$F290:    61            mov byte ptr [r0], low(r1)
$F291:    62            mov byte ptr [r0], low(r2)
$F292:    61            mov byte ptr [r0], low(r1)
$F293:    73            mov [r0], r3
$F294:    65            mov byte ptr [r1], low(r1)
$F295:    2E            mov r3, r2
$F296:    0A            mov r0, sp
$F297:    00            trap
$F298:    3E            add r3, r2
$F299:    3E            add r3, r2
$F29A:    20            mov r0, r0
$F29B:    50            mov r0, [r0]
$F29C:    61            mov byte ptr [r0], low(r1)
$F29D:    73            mov [r0], r3
$F29E:    73            mov [r0], r3
$F29F:    77            mov [r1], r3
$F2A0:    6F            mov byte ptr [r3], low(r3)
$F2A1:    72            mov [r0], r2
$F2A2:    64            mov byte ptr [r1], low(r0)
$F2A3:    20            mov r0, r0
$F2A4:    69            mov byte ptr [r2], low(r1)
$F2A5:    73            mov [r0], r3
$F2A6:    20            mov r0, r0
$F2A7:    69            mov byte ptr [r2], low(r1)
$F2A8:    6E            mov byte ptr [r3], low(r2)
$F2A9:    63            mov byte ptr [r0], low(r3)
$F2AA:    6F            mov byte ptr [r3], low(r3)
$F2AB:    72            mov [r0], r2
$F2AC:    72            mov [r0], r2
$F2AD:    65            mov byte ptr [r1], low(r1)
$F2AE:    63            mov byte ptr [r0], low(r3)
$F2AF:    74            mov [r1], r0
$F2B0:    2E            mov r3, r2
$F2B1:    0A            mov r0, sp
$F2B2:    00            trap
$F2B3:    3E            add r3, r2
$F2B4:    3E            add r3, r2
$F2B5:    20            mov r0, r0
$F2B6:    4C            mov r3, byte ptr [r0]
$F2B7:    6F            mov byte ptr [r3], low(r3)
$F2B8:    67            mov byte ptr [r1], low(r3)
$F2B9:    69            mov byte ptr [r2], low(r1)
$F2BA:    6E            mov byte ptr [r3], low(r2)
$F2BB:    20            mov r0, r0
$F2BC:    73            mov [r0], r3
$F2BD:    75            mov [r1], r1
$F2BE:    63            mov byte ptr [r0], low(r3)
$F2BF:    63            mov byte ptr [r0], low(r3)
$F2C0:    65            mov byte ptr [r1], low(r1)
$F2C1:    73            mov [r0], r3
$F2C2:    73            mov [r0], r3
$F2C3:    66            mov byte ptr [r1], low(r2)
$F2C4:    75            mov [r1], r1
$F2C5:    6C            mov byte ptr [r3], low(r0)
$F2C6:    2E            mov r3, r2
$F2C7:    0A            mov r0, sp
$F2C8:    3D            add r3, r1
$F2C9:    3D            add r3, r1
$F2CA:    3D            add r3, r1
$F2CB:    3D            add r3, r1
$F2CC:    3D            add r3, r1
$F2CD:    3D            add r3, r1
$F2CE:    3D            add r3, r1
$F2CF:    3D            add r3, r1
$F2D0:    3D            add r3, r1
$F2D1:    3D            add r3, r1
$F2D2:    3D            add r3, r1
$F2D3:    3D            add r3, r1
$F2D4:    3D            add r3, r1
$F2D5:    3D            add r3, r1
$F2D6:    3D            add r3, r1
$F2D7:    3D            add r3, r1
$F2D8:    3D            add r3, r1
$F2D9:    3D            add r3, r1
$F2DA:    3D            add r3, r1
$F2DB:    3D            add r3, r1
$F2DC:    3D            add r3, r1
$F2DD:    3D            add r3, r1
$F2DE:    3D            add r3, r1
$F2DF:    3D            add r3, r1
$F2E0:    3D            add r3, r1
$F2E1:    3D            add r3, r1
$F2E2:    3D            add r3, r1
$F2E3:    3D            add r3, r1
$F2E4:    3D            add r3, r1
$F2E5:    3D            add r3, r1
$F2E6:    3D            add r3, r1
$F2E7:    3D            add r3, r1
$F2E8:    3D            add r3, r1
$F2E9:    3D            add r3, r1
$F2EA:    3D            add r3, r1
$F2EB:    3D            add r3, r1
$F2EC:    3D            add r3, r1
$F2ED:    3D            add r3, r1
$F2EE:    3D            add r3, r1
$F2EF:    3D            add r3, r1
$F2F0:    3D            add r3, r1
$F2F1:    3D            add r3, r1
$F2F2:    3D            add r3, r1
$F2F3:    3D            add r3, r1
$F2F4:    3D            add r3, r1
$F2F5:    3D            add r3, r1
$F2F6:    3D            add r3, r1
$F2F7:    3D            add r3, r1
$F2F8:    3D            add r3, r1
$F2F9:    3D            add r3, r1
$F2FA:    3D            add r3, r1
$F2FB:    3D            add r3, r1
$F2FC:    3D            add r3, r1
$F2FD:    3D            add r3, r1
$F2FE:    3D            add r3, r1
$F2FF:    3D            add r3, r1
$F300:    3D            add r3, r1
$F301:    3D            add r3, r1
$F302:    3D            add r3, r1
$F303:    3D            add r3, r1
$F304:    3D            add r3, r1
$F305:    3D            add r3, r1
$F306:    3D            add r3, r1
$F307:    3D            add r3, r1
$F308:    3D            add r3, r1
$F309:    3D            add r3, r1
$F30A:    3D            add r3, r1
$F30B:    3D            add r3, r1
$F30C:    3D            add r3, r1
$F30D:    3D            add r3, r1
$F30E:    0A            mov r0, sp
$F30F:    52            mov r0, [r2]
$F310:    75            mov [r1], r1
$F311:    6E            mov byte ptr [r3], low(r2)
$F312:    6E            mov byte ptr [r3], low(r2)
$F313:    69            mov byte ptr [r2], low(r1)
$F314:    6E            mov byte ptr [r3], low(r2)
$F315:    67            mov byte ptr [r1], low(r3)
$F316:    20            mov r0, r0
$F317:    6D            mov byte ptr [r3], low(r1)
$F318:    61            mov byte ptr [r0], low(r1)
$F319:    63            mov byte ptr [r0], low(r3)
$F31A:    68            mov byte ptr [r2], low(r0)
$F31B:    69            mov byte ptr [r2], low(r1)
$F31C:    6E            mov byte ptr [r3], low(r2)
$F31D:    65            mov byte ptr [r1], low(r1)
$F31E:    20            mov r0, r0
$F31F:    6C            mov byte ptr [r3], low(r0)
$F320:    61            mov byte ptr [r0], low(r1)
$F321:    6E            mov byte ptr [r3], low(r2)
$F322:    67            mov byte ptr [r1], low(r3)
$F323:    75            mov [r1], r1
$F324:    61            mov byte ptr [r0], low(r1)
$F325:    67            mov byte ptr [r1], low(r3)
$F326:    65            mov byte ptr [r1], low(r1)
$F327:    20            mov r0, r0
$F328:    6D            mov byte ptr [r3], low(r1)
$F329:    6F            mov byte ptr [r3], low(r3)
$F32A:    6E            mov byte ptr [r3], low(r2)
$F32B:    69            mov byte ptr [r2], low(r1)
$F32C:    74            mov [r1], r0
$F32D:    6F            mov byte ptr [r3], low(r3)
$F32E:    72            mov [r0], r2
$F32F:    20            mov r0, r0
$F330:    6E            mov byte ptr [r3], low(r2)
$F331:    6F            mov byte ptr [r3], low(r3)
$F332:    77            mov [r1], r3
$F333:    2E            mov r3, r2
$F334:    0A            mov r0, sp
$F335:    3D            add r3, r1
$F336:    3D            add r3, r1
$F337:    3D            add r3, r1
$F338:    3D            add r3, r1
$F339:    3D            add r3, r1
$F33A:    3D            add r3, r1
$F33B:    3D            add r3, r1
$F33C:    3D            add r3, r1
$F33D:    3D            add r3, r1
$F33E:    3D            add r3, r1
$F33F:    3D            add r3, r1
$F340:    3D            add r3, r1
$F341:    3D            add r3, r1
$F342:    3D            add r3, r1
$F343:    3D            add r3, r1
$F344:    3D            add r3, r1
$F345:    3D            add r3, r1
$F346:    3D            add r3, r1
$F347:    3D            add r3, r1
$F348:    3D            add r3, r1
$F349:    3D            add r3, r1
$F34A:    3D            add r3, r1
$F34B:    3D            add r3, r1
$F34C:    3D            add r3, r1
$F34D:    3D            add r3, r1
$F34E:    3D            add r3, r1
$F34F:    3D            add r3, r1
$F350:    3D            add r3, r1
$F351:    3D            add r3, r1
$F352:    3D            add r3, r1
$F353:    3D            add r3, r1
$F354:    3D            add r3, r1
$F355:    3D            add r3, r1
$F356:    3D            add r3, r1
$F357:    3D            add r3, r1
$F358:    3D            add r3, r1
$F359:    3D            add r3, r1
$F35A:    3D            add r3, r1
$F35B:    3D            add r3, r1
$F35C:    3D            add r3, r1
$F35D:    3D            add r3, r1
$F35E:    3D            add r3, r1
$F35F:    3D            add r3, r1
$F360:    3D            add r3, r1
$F361:    3D            add r3, r1
$F362:    3D            add r3, r1
$F363:    3D            add r3, r1
$F364:    3D            add r3, r1
$F365:    3D            add r3, r1
$F366:    3D            add r3, r1
$F367:    3D            add r3, r1
$F368:    3D            add r3, r1
$F369:    3D            add r3, r1
$F36A:    3D            add r3, r1
$F36B:    3D            add r3, r1
$F36C:    3D            add r3, r1
$F36D:    3D            add r3, r1
$F36E:    3D            add r3, r1
$F36F:    3D            add r3, r1
$F370:    3D            add r3, r1
$F371:    3D            add r3, r1
$F372:    3D            add r3, r1
$F373:    3D            add r3, r1
$F374:    3D            add r3, r1
$F375:    3D            add r3, r1
$F376:    3D            add r3, r1
$F377:    3D            add r3, r1
$F378:    3D            add r3, r1
$F379:    3D            add r3, r1
$F37A:    3D            add r3, r1
$F37B:    0A            mov r0, sp
$F37C:    0A            mov r0, sp
$F37D:    00            trap
$F37E:    A6            push sp
$F37F:    BC B6 FB      mov [$FBB6], r0
$F382:    BD B8 FB      mov [$FBB8], r0
$F385:    BE BA FB      mov [$FBBA], r0
$F388:    BF BC FB      mov [$FBBC], r0
$F38B:    94            pop r0
$F38C:    BC BE FB      mov [$FBBE], r0
$F38F:    0A            mov r0, sp
$F390:    50            mov r0, [r0]
$F391:    E0 FF FF      add r0, $FFFF
$F394:    BC C0 FB      mov [$FBC0], r0
$F397:    11 0C 00      mov r1, $000C
$F39A:    12 C2 FB      mov r2, $FBC2
$F39D:    B7 BE FB      mov r3, [$FBBE]
$F3A0:    99 28 00      call $0028    # <MemCpy>
$F3A3:    12 1C FB      mov r2, $FB1C
$F3A6:    99 08 00      call $0008    # <PrintStr>
$F3A9:    10 00 00      mov r0, $0000
$F3AC:    B8 02 E0      mov byte ptr [$E002], low(r0)
$F3AF:    12 12 FB      mov r2, $FB12
$F3B2:    99 08 00      call $0008    # <PrintStr>
$F3B5:    12 00 E0      mov r2, $E000
$F3B8:    13 08 00      mov r3, $0008
$F3BB:    99 30 00      call $0030    # <ReadStr>
$F3BE:    A5 00 00      cmp r3, $0000
$F3C1:    9C 39 F4      je $F439
$F3C4:    12 00 E0      mov r2, $E000
$F3C7:    99 38 00      call $0038    # <StrTrim>
$F3CA:    B0 02 E0      mov r0, byte ptr [$E002]
$F3CD:    A2 00 00      cmp r0, $0000
$F3D0:    9D 30 F4      jne $F430
$F3D3:    B4 00 E0      mov r0, [$E000]
$F3D6:    A2 68 0A      cmp r0, $0A68
$F3D9:    9C 42 F4      je $F442
$F3DC:    A2 68 00      cmp r0, $0068
$F3DF:    9C 42 F4      je $F442
$F3E2:    A2 72 00      cmp r0, $0072
$F3E5:    9C 4B F4      je $F44B
$F3E8:    A2 72 0A      cmp r0, $0A72
$F3EB:    9C 4B F4      je $F44B
$F3EE:    A2 70 00      cmp r0, $0070
$F3F1:    9C 4A F5      je $F54A
$F3F4:    A2 70 0A      cmp r0, $0A70
$F3F7:    9C 4A F5      je $F54A
$F3FA:    A2 78 00      cmp r0, $0078
$F3FD:    9C 66 F5      je $F566
$F400:    A2 78 0A      cmp r0, $0A78
$F403:    9C 66 F5      je $F566
$F406:    A2 63 00      cmp r0, $0063
$F409:    9C AC F5      je $F5AC
$F40C:    A2 63 0A      cmp r0, $0A63
$F40F:    9C AC F5      je $F5AC
$F412:    A2 55 43      cmp r0, $4355
$F415:    9C 00 F6      je $F600
$F418:    A2 6C 73      cmp r0, $736C
$F41B:    9C BF F5      je $F5BF
$F41E:    A2 72 66      cmp r0, $6672
$F421:    9C 09 F6      je $F609
$F424:    A2 77 00      cmp r0, $0077
$F427:    9C BB F4      je $F4BB
$F42A:    A2 77 0A      cmp r0, $0A77
$F42D:    9C BB F4      je $F4BB
$F430:    12 B5 F7      mov r2, $F7B5
$F433:    99 08 00      call $0008    # <PrintStr>
$F436:    98 A9 F3      jmp $F3A9    # <None>
$F439:    12 9C F7      mov r2, $F79C
$F43C:    99 08 00      call $0008    # <PrintStr>
$F43F:    98 A9 F3      jmp $F3A9    # <None>
$F442:    12 24 F9      mov r2, $F924
$F445:    99 08 00      call $0008    # <PrintStr>
$F448:    98 A9 F3      jmp $F3A9    # <None>
$F44B:    12 F0 F7      mov r2, $F7F0
$F44E:    99 08 00      call $0008    # <PrintStr>
$F451:    12 00 E0      mov r2, $E000
$F454:    13 08 00      mov r3, $0008
$F457:    99 30 00      call $0030    # <ReadStr>
$F45A:    12 00 E0      mov r2, $E000
$F45D:    99 20 00      call $0020    # <ConvertHex>
$F460:    A2 FF FF      cmp r0, $FFFF
$F463:    9C B2 F4      je $F4B2
$F466:    90            push r0
$F467:    12 02 F8      mov r2, $F802
$F46A:    99 08 00      call $0008    # <PrintStr>
$F46D:    12 00 E0      mov r2, $E000
$F470:    13 08 00      mov r3, $0008
$F473:    99 30 00      call $0030    # <ReadStr>
$F476:    12 00 E0      mov r2, $E000
$F479:    99 20 00      call $0020    # <ConvertHex>
$F47C:    A2 FF FF      cmp r0, $FFFF
$F47F:    9C B2 F4      je $F4B2
$F482:    A2 00 00      cmp r0, $0000
$F485:    9C B2 F4      je $F4B2
$F488:    2C            mov r3, r0
$F489:    96            pop r2
$F48A:    92            push r2
$F48B:    93            push r3
$F48C:    11 08 00      mov r1, $0008
$F48F:    2E            mov r3, r2
$F490:    12 CE FB      mov r2, $FBCE
$F493:    99 28 00      call $0028    # <MemCpy>
$F496:    97            pop r3
$F497:    96            pop r2
$F498:    BE D6 FB      mov [$FBD6], r0
$F49B:    92            push r2
$F49C:    93            push r3
$F49D:    12 8F FB      mov r2, $FB8F
$F4A0:    99 08 00      call $0008    # <PrintStr>
$F4A3:    97            pop r3
$F4A4:    96            pop r2
$F4A5:    E2 08 00      add r2, $0008
$F4A8:    AF            dec r3
$F4A9:    A5 00 00      cmp r3, $0000
$F4AC:    9D 8A F4      jne $F48A
$F4AF:    98 A9 F3      jmp $F3A9    # <None>
$F4B2:    12 D8 F7      mov r2, $F7D8
$F4B5:    99 08 00      call $0008    # <PrintStr>
$F4B8:    98 A9 F3      jmp $F3A9    # <None>
$F4BB:    12 F0 F7      mov r2, $F7F0
$F4BE:    99 08 00      call $0008    # <PrintStr>
$F4C1:    12 00 E0      mov r2, $E000
$F4C4:    13 08 00      mov r3, $0008
$F4C7:    99 30 00      call $0030    # <ReadStr>
$F4CA:    12 00 E0      mov r2, $E000
$F4CD:    99 20 00      call $0020    # <ConvertHex>
$F4D0:    A2 FF FF      cmp r0, $FFFF
$F4D3:    9C 41 F5      je $F541
$F4D6:    BC D6 FB      mov [$FBD6], r0
$F4D9:    12 B0 F8      mov r2, $F8B0
$F4DC:    99 08 00      call $0008    # <PrintStr>
$F4DF:    13 02 E0      mov r3, $E002
$F4E2:    10 00 00      mov r0, $0000
$F4E5:    6C            mov byte ptr [r3], low(r0)
$F4E6:    AF            dec r3
$F4E7:    6C            mov byte ptr [r3], low(r0)
$F4E8:    AF            dec r3
$F4E9:    06 02         swi 2
$F4EB:    6C            mov byte ptr [r3], low(r0)
$F4EC:    2B            mov r2, r3
$F4ED:    A2 2E 00      cmp r0, $002E
$F4F0:    9C 30 F5      je $F530
$F4F3:    A2 0A 00      cmp r0, $000A
$F4F6:    9C E9 F4      je $F4E9
$F4F9:    93            push r3
$F4FA:    99 20 00      call $0020    # <ConvertHex>
$F4FD:    97            pop r3
$F4FE:    A2 FF FF      cmp r0, $FFFF
$F501:    9C E9 F4      je $F4E9
$F504:    AB            inc r3
$F505:    06 02         swi 2
$F507:    6C            mov byte ptr [r3], low(r0)
$F508:    2B            mov r2, r3
$F509:    A2 2E 00      cmp r0, $002E
$F50C:    9C 30 F5      je $F530
$F50F:    A2 0A 00      cmp r0, $000A
$F512:    9C 05 F5      je $F505
$F515:    93            push r3
$F516:    99 20 00      call $0020    # <ConvertHex>
$F519:    97            pop r3
$F51A:    A2 FF FF      cmp r0, $FFFF
$F51D:    9C 05 F5      je $F505
$F520:    AF            dec r3
$F521:    2B            mov r2, r3
$F522:    99 20 00      call $0020    # <ConvertHex>
$F525:    B5 D6 FB      mov r1, [$FBD6]
$F528:    64            mov byte ptr [r1], low(r0)
$F529:    A9            inc r1
$F52A:    BD D6 FB      mov [$FBD6], r0
$F52D:    98 DF F4      jmp $F4DF    # <None>
$F530:    06 02         swi 2
$F532:    A2 0A 00      cmp r0, $000A
$F535:    9D 30 F5      jne $F530
$F538:    12 62 F8      mov r2, $F862
$F53B:    99 08 00      call $0008    # <PrintStr>
$F53E:    98 A9 F3      jmp $F3A9    # <None>
$F541:    12 D8 F7      mov r2, $F7D8
$F544:    99 08 00      call $0008    # <PrintStr>
$F547:    98 A9 F3      jmp $F3A9    # <None>
$F54A:    12 F0 F7      mov r2, $F7F0
$F54D:    99 08 00      call $0008    # <PrintStr>
$F550:    12 00 E0      mov r2, $E000
$F553:    13 08 00      mov r3, $0008
$F556:    99 30 00      call $0030    # <ReadStr>
$F559:    12 00 E0      mov r2, $E000
$F55C:    99 20 00      call $0020    # <ConvertHex>
$F55F:    28            mov r2, r0
$F560:    99 08 00      call $0008    # <PrintStr>
$F563:    98 A9 F3      jmp $F3A9    # <None>
$F566:    12 F0 F7      mov r2, $F7F0
$F569:    99 08 00      call $0008    # <PrintStr>
$F56C:    12 00 E0      mov r2, $E000
$F56F:    13 08 00      mov r3, $0008
$F572:    99 30 00      call $0030    # <ReadStr>
$F575:    12 00 E0      mov r2, $E000
$F578:    99 20 00      call $0020    # <ConvertHex>
$F57B:    90            push r0
$F57C:    BC D6 FB      mov [$FBD6], r0
$F57F:    12 15 F8      mov r2, $F815
$F582:    99 08 00      call $0008    # <PrintStr>
$F585:    12 00 E0      mov r2, $E000
$F588:    13 08 00      mov r3, $0008
$F58B:    99 30 00      call $0030    # <ReadStr>
$F58E:    B0 00 E0      mov r0, byte ptr [$E000]
$F591:    A2 59 00      cmp r0, $0059
$F594:    9C A7 F5      je $F5A7
$F597:    A2 79 00      cmp r0, $0079
$F59A:    9C A7 F5      je $F5A7
$F59D:    12 3A F8      mov r2, $F83A
$F5A0:    99 08 00      call $0008    # <PrintStr>
$F5A3:    94            pop r0
$F5A4:    98 A9 F3      jmp $F3A9    # <None>
$F5A7:    97            pop r3
$F5A8:    CC            call r3
$F5A9:    98 A9 F3      jmp $F3A9    # <None>
$F5AC:    12 55 F8      mov r2, $F855
$F5AF:    99 08 00      call $0008    # <PrintStr>
$F5B2:    B4 B6 FB      mov r0, [$FBB6]
$F5B5:    B5 B8 FB      mov r1, [$FBB8]
$F5B8:    B6 BA FB      mov r2, [$FBBA]
$F5BB:    B7 BC FB      mov r3, [$FBBC]
$F5BE:    05            ret
$F5BF:    12 DD FA      mov r2, $FADD
$F5C2:    99 08 00      call $0008    # <PrintStr>
$F5C5:    10 00 00      mov r0, $0000
$F5C8:    11 00 E0      mov r1, $E000
$F5CB:    06 04         swi 4
$F5CD:    13 00 E0      mov r3, $E000
$F5D0:    43            mov r0, byte ptr [r3]
$F5D1:    A2 00 00      cmp r0, $0000
$F5D4:    9C F4 F5      je $F5F4
$F5D7:    93            push r3
$F5D8:    B8 CE FB      mov byte ptr [$FBCE], low(r0)
$F5DB:    AB            inc r3
$F5DC:    53            mov r0, [r3]
$F5DD:    93            push r3
$F5DE:    BC D6 FB      mov [$FBD6], r0
$F5E1:    12 06 FB      mov r2, $FB06
$F5E4:    99 08 00      call $0008    # <PrintStr>
$F5E7:    97            pop r3
$F5E8:    AB            inc r3
$F5E9:    AB            inc r3
$F5EA:    2B            mov r2, r3
$F5EB:    99 08 00      call $0008    # <PrintStr>
$F5EE:    10 0A 00      mov r0, $000A
$F5F1:    06 01         swi 1
$F5F3:    97            pop r3
$F5F4:    E3 10 00      add r3, $0010
$F5F7:    A5 00 EF      cmp r3, $EF00
$F5FA:    9D D0 F5      jne $F5D0
$F5FD:    98 A9 F3      jmp $F3A9    # <None>
$F600:    12 DF F8      mov r2, $F8DF
$F603:    99 08 00      call $0008    # <PrintStr>
$F606:    98 A9 F3      jmp $F3A9    # <None>
$F609:    12 8A F8      mov r2, $F88A
$F60C:    99 08 00      call $0008    # <PrintStr>
$F60F:    10 00 00      mov r0, $0000
$F612:    11 00 E0      mov r1, $E000
$F615:    06 04         swi 4
$F617:    12 B0 EF      mov r2, $EFB0
$F61A:    13 10 00      mov r3, $0010
$F61D:    99 30 00      call $0030    # <ReadStr>
$F620:    A5 00 00      cmp r3, $0000
$F623:    9C 8A F6      je $F68A
$F626:    12 B0 EF      mov r2, $EFB0
$F629:    99 38 00      call $0038    # <StrTrim>
$F62C:    13 03 E0      mov r3, $E003
$F62F:    12 B0 EF      mov r2, $EFB0
$F632:    93            push r3
$F633:    99 10 00      call $0010    # <StrCmp>
$F636:    97            pop r3
$F637:    A2 00 00      cmp r0, $0000
$F63A:    9C 49 F6      je $F649
$F63D:    E3 10 00      add r3, $0010
$F640:    A5 03 EF      cmp r3, $EF03
$F643:    9C 81 F6      je $F681
$F646:    98 2F F6      jmp $F62F    # <None>
$F649:    AF            dec r3
$F64A:    AF            dec r3
$F64B:    AF            dec r3
$F64C:    43            mov r0, byte ptr [r3]
$F64D:    AB            inc r3
$F64E:    57            mov r1, [r3]
$F64F:    91            push r1
$F650:    11 00 E0      mov r1, $E000
$F653:    06 04         swi 4
$F655:    12 F0 F7      mov r2, $F7F0
$F658:    99 08 00      call $0008    # <PrintStr>
$F65B:    12 E0 EF      mov r2, $EFE0
$F65E:    13 10 00      mov r3, $0010
$F661:    99 30 00      call $0030    # <ReadStr>
$F664:    12 E0 EF      mov r2, $EFE0
$F667:    99 20 00      call $0020    # <ConvertHex>
$F66A:    95            pop r1
$F66B:    A2 FF FF      cmp r0, $FFFF
$F66E:    9C 93 F6      je $F693
$F671:    28            mov r2, r0
$F672:    13 00 E0      mov r3, $E000
$F675:    99 28 00      call $0028    # <MemCpy>
$F678:    12 62 F8      mov r2, $F862
$F67B:    99 08 00      call $0008    # <PrintStr>
$F67E:    98 A9 F3      jmp $F3A9    # <None>
$F681:    12 97 F8      mov r2, $F897
$F684:    99 08 00      call $0008    # <PrintStr>
$F687:    98 A9 F3      jmp $F3A9    # <None>
$F68A:    12 9C F7      mov r2, $F79C
$F68D:    99 08 00      call $0008    # <PrintStr>
$F690:    98 A9 F3      jmp $F3A9    # <None>
$F693:    12 D8 F7      mov r2, $F7D8
$F696:    99 08 00      call $0008    # <PrintStr>
$F699:    98 A9 F3      jmp $F3A9    # <None>
$F69C:    3D            add r3, r1
$F69D:    3D            add r3, r1
$F69E:    3D            add r3, r1
$F69F:    3D            add r3, r1
$F6A0:    3D            add r3, r1
$F6A1:    3D            add r3, r1
$F6A2:    3D            add r3, r1
$F6A3:    3D            add r3, r1
$F6A4:    3D            add r3, r1
$F6A5:    3D            add r3, r1
$F6A6:    3D            add r3, r1
$F6A7:    3D            add r3, r1
$F6A8:    3D            add r3, r1
$F6A9:    3D            add r3, r1
$F6AA:    3D            add r3, r1
$F6AB:    3D            add r3, r1
$F6AC:    3D            add r3, r1
$F6AD:    3D            add r3, r1
$F6AE:    3D            add r3, r1
$F6AF:    3D            add r3, r1
$F6B0:    3D            add r3, r1
$F6B1:    3D            add r3, r1
$F6B2:    3D            add r3, r1
$F6B3:    3D            add r3, r1
$F6B4:    3D            add r3, r1
$F6B5:    3D            add r3, r1
$F6B6:    3D            add r3, r1
$F6B7:    3D            add r3, r1
$F6B8:    3D            add r3, r1
$F6B9:    3D            add r3, r1
$F6BA:    3D            add r3, r1
$F6BB:    3D            add r3, r1
$F6BC:    3D            add r3, r1
$F6BD:    3D            add r3, r1
$F6BE:    3D            add r3, r1
$F6BF:    3D            add r3, r1
$F6C0:    3D            add r3, r1
$F6C1:    3D            add r3, r1
$F6C2:    3D            add r3, r1
$F6C3:    3D            add r3, r1
$F6C4:    3D            add r3, r1
$F6C5:    3D            add r3, r1
$F6C6:    3D            add r3, r1
$F6C7:    3D            add r3, r1
$F6C8:    3D            add r3, r1
$F6C9:    3D            add r3, r1
$F6CA:    3D            add r3, r1
$F6CB:    3D            add r3, r1
$F6CC:    3D            add r3, r1
$F6CD:    3D            add r3, r1
$F6CE:    3D            add r3, r1
$F6CF:    3D            add r3, r1
$F6D0:    3D            add r3, r1
$F6D1:    3D            add r3, r1
$F6D2:    3D            add r3, r1
$F6D3:    3D            add r3, r1
$F6D4:    3D            add r3, r1
$F6D5:    3D            add r3, r1
$F6D6:    3D            add r3, r1
$F6D7:    3D            add r3, r1
$F6D8:    3D            add r3, r1
$F6D9:    3D            add r3, r1
$F6DA:    3D            add r3, r1
$F6DB:    3D            add r3, r1
$F6DC:    3D            add r3, r1
$F6DD:    3D            add r3, r1
$F6DE:    3D            add r3, r1
$F6DF:    3D            add r3, r1
$F6E0:    3D            add r3, r1
$F6E1:    3D            add r3, r1
$F6E2:    0D             === ILLEGAL OPCODE ===
$F6E3:    0A            mov r0, sp
$F6E4:    57            mov r1, [r3]
$F6E5:    65            mov byte ptr [r1], low(r1)
$F6E6:    6C            mov byte ptr [r3], low(r0)
$F6E7:    63            mov byte ptr [r0], low(r3)
$F6E8:    6F            mov byte ptr [r3], low(r3)
$F6E9:    6D            mov byte ptr [r3], low(r1)
$F6EA:    65            mov byte ptr [r1], low(r1)
$F6EB:    20            mov r0, r0
$F6EC:    74            mov [r1], r0
$F6ED:    6F            mov byte ptr [r3], low(r3)
$F6EE:    20            mov r0, r0
$F6EF:    47            mov r1, byte ptr [r3]
$F6F0:    6C            mov byte ptr [r3], low(r0)
$F6F1:    69            mov byte ptr [r2], low(r1)
$F6F2:    74            mov [r1], r0
$F6F3:    63            mov byte ptr [r0], low(r3)
$F6F4:    68            mov byte ptr [r2], low(r0)
$F6F5:    20            mov r0, r0
$F6F6:    52            mov r0, [r2]
$F6F7:    65            mov byte ptr [r1], low(r1)
$F6F8:    73            mov [r0], r3
$F6F9:    65            mov byte ptr [r1], low(r1)
$F6FA:    61            mov byte ptr [r0], low(r1)
$F6FB:    72            mov [r0], r2
$F6FC:    63            mov byte ptr [r0], low(r3)
$F6FD:    68            mov byte ptr [r2], low(r0)
$F6FE:    20            mov r0, r0
$F6FF:    4C            mov r3, byte ptr [r0]
$F700:    61            mov byte ptr [r0], low(r1)
$F701:    62            mov byte ptr [r0], low(r2)
$F702:    6F            mov byte ptr [r3], low(r3)
$F703:    72            mov [r0], r2
$F704:    61            mov byte ptr [r0], low(r1)
$F705:    74            mov [r1], r0
$F706:    6F            mov byte ptr [r3], low(r3)
$F707:    72            mov [r0], r2
$F708:    79            mov [r2], r1
$F709:    20            mov r0, r0
$F70A:    4E            mov r3, byte ptr [r2]
$F70B:    65            mov byte ptr [r1], low(r1)
$F70C:    74            mov [r1], r0
$F70D:    77            mov [r1], r3
$F70E:    6F            mov byte ptr [r3], low(r3)
$F70F:    72            mov [r0], r2
$F710:    6B            mov byte ptr [r2], low(r3)
$F711:    3A            add r2, r2
$F712:    20            mov r0, r0
$F713:    54            mov r1, [r0]
$F714:    65            mov byte ptr [r1], low(r1)
$F715:    73            mov [r0], r3
$F716:    74            mov [r1], r0
$F717:    20            mov r0, r0
$F718:    53            mov r0, [r3]
$F719:    65            mov byte ptr [r1], low(r1)
$F71A:    72            mov [r0], r2
$F71B:    76            mov [r1], r2
$F71C:    65            mov byte ptr [r1], low(r1)
$F71D:    72            mov [r0], r2
$F71E:    20            mov r0, r0
$F71F:    32            add r0, r2
$F720:    20            mov r0, r0
$F721:    28            mov r2, r0
$F722:    47            mov r1, byte ptr [r3]
$F723:    52            mov r0, [r2]
$F724:    4C            mov r3, byte ptr [r0]
$F725:    54            mov r1, [r0]
$F726:    53            mov r0, [r3]
$F727:    30            add r0, r0
$F728:    32            add r0, r2
$F729:    29            mov r2, r1
$F72A:    0D             === ILLEGAL OPCODE ===
$F72B:    0A            mov r0, sp
$F72C:    3D            add r3, r1
$F72D:    3D            add r3, r1
$F72E:    3D            add r3, r1
$F72F:    3D            add r3, r1
$F730:    3D            add r3, r1
$F731:    3D            add r3, r1
$F732:    3D            add r3, r1
$F733:    3D            add r3, r1
$F734:    3D            add r3, r1
$F735:    3D            add r3, r1
$F736:    3D            add r3, r1
$F737:    3D            add r3, r1
$F738:    3D            add r3, r1
$F739:    3D            add r3, r1
$F73A:    3D            add r3, r1
$F73B:    3D            add r3, r1
$F73C:    3D            add r3, r1
$F73D:    3D            add r3, r1
$F73E:    3D            add r3, r1
$F73F:    3D            add r3, r1
$F740:    3D            add r3, r1
$F741:    3D            add r3, r1
$F742:    3D            add r3, r1
$F743:    3D            add r3, r1
$F744:    3D            add r3, r1
$F745:    3D            add r3, r1
$F746:    3D            add r3, r1
$F747:    3D            add r3, r1
$F748:    3D            add r3, r1
$F749:    3D            add r3, r1
$F74A:    3D            add r3, r1
$F74B:    3D            add r3, r1
$F74C:    3D            add r3, r1
$F74D:    3D            add r3, r1
$F74E:    3D            add r3, r1
$F74F:    3D            add r3, r1
$F750:    3D            add r3, r1
$F751:    3D            add r3, r1
$F752:    3D            add r3, r1
$F753:    3D            add r3, r1
$F754:    3D            add r3, r1
$F755:    3D            add r3, r1
$F756:    3D            add r3, r1
$F757:    3D            add r3, r1
$F758:    3D            add r3, r1
$F759:    3D            add r3, r1
$F75A:    3D            add r3, r1
$F75B:    3D            add r3, r1
$F75C:    3D            add r3, r1
$F75D:    3D            add r3, r1
$F75E:    3D            add r3, r1
$F75F:    3D            add r3, r1
$F760:    3D            add r3, r1
$F761:    3D            add r3, r1
$F762:    3D            add r3, r1
$F763:    3D            add r3, r1
$F764:    3D            add r3, r1
$F765:    3D            add r3, r1
$F766:    3D            add r3, r1
$F767:    3D            add r3, r1
$F768:    3D            add r3, r1
$F769:    3D            add r3, r1
$F76A:    3D            add r3, r1
$F76B:    3D            add r3, r1
$F76C:    3D            add r3, r1
$F76D:    3D            add r3, r1
$F76E:    3D            add r3, r1
$F76F:    3D            add r3, r1
$F770:    3D            add r3, r1
$F771:    3D            add r3, r1
$F772:    0D             === ILLEGAL OPCODE ===
$F773:    0A            mov r0, sp
$F774:    54            mov r1, [r0]
$F775:    68            mov byte ptr [r2], low(r0)
$F776:    69            mov byte ptr [r2], low(r1)
$F777:    73            mov [r0], r3
$F778:    20            mov r0, r0
$F779:    6D            mov byte ptr [r3], low(r1)
$F77A:    61            mov byte ptr [r0], low(r1)
$F77B:    63            mov byte ptr [r0], low(r3)
$F77C:    68            mov byte ptr [r2], low(r0)
$F77D:    69            mov byte ptr [r2], low(r1)
$F77E:    6E            mov byte ptr [r3], low(r2)
$F77F:    65            mov byte ptr [r1], low(r1)
$F780:    20            mov r0, r0
$F781:    72            mov [r0], r2
$F782:    65            mov byte ptr [r1], low(r1)
$F783:    71            mov [r0], r1
$F784:    75            mov [r1], r1
$F785:    69            mov byte ptr [r2], low(r1)
$F786:    72            mov [r0], r2
$F787:    65            mov byte ptr [r1], low(r1)
$F788:    73            mov [r0], r3
$F789:    20            mov r0, r0
$F78A:    61            mov byte ptr [r0], low(r1)
$F78B:    75            mov [r1], r1
$F78C:    74            mov [r1], r0
$F78D:    68            mov byte ptr [r2], low(r0)
$F78E:    65            mov byte ptr [r1], low(r1)
$F78F:    6E            mov byte ptr [r3], low(r2)
$F790:    74            mov [r1], r0
$F791:    69            mov byte ptr [r2], low(r1)
$F792:    63            mov byte ptr [r0], low(r3)
$F793:    61            mov byte ptr [r0], low(r1)
$F794:    74            mov [r1], r0
$F795:    69            mov byte ptr [r2], low(r1)
$F796:    6F            mov byte ptr [r3], low(r3)
$F797:    6E            mov byte ptr [r3], low(r2)
$F798:    2E            mov r3, r2
$F799:    0D             === ILLEGAL OPCODE ===
$F79A:    0A            mov r0, sp
$F79B:    00            trap
$F79C:    21            mov r0, r1
$F79D:    20            mov r0, r0
$F79E:    49            mov r2, byte ptr [r1]
$F79F:    6E            mov byte ptr [r3], low(r2)
$F7A0:    70            mov [r0], r0
$F7A1:    75            mov [r1], r1
$F7A2:    74            mov [r1], r0
$F7A3:    20            mov r0, r0
$F7A4:    74            mov [r1], r0
$F7A5:    6F            mov byte ptr [r3], low(r3)
$F7A6:    6F            mov byte ptr [r3], low(r3)
$F7A7:    20            mov r0, r0
$F7A8:    6C            mov byte ptr [r3], low(r0)
$F7A9:    6F            mov byte ptr [r3], low(r3)
$F7AA:    6E            mov byte ptr [r3], low(r2)
$F7AB:    67            mov byte ptr [r1], low(r3)
$F7AC:    20            mov r0, r0
$F7AD:    65            mov byte ptr [r1], low(r1)
$F7AE:    72            mov [r0], r2
$F7AF:    72            mov [r0], r2
$F7B0:    6F            mov byte ptr [r3], low(r3)
$F7B1:    72            mov [r0], r2
$F7B2:    2E            mov r3, r2
$F7B3:    0A            mov r0, sp
$F7B4:    00            trap
$F7B5:    21            mov r0, r1
$F7B6:    20            mov r0, r0
$F7B7:    42            mov r0, byte ptr [r2]
$F7B8:    61            mov byte ptr [r0], low(r1)
$F7B9:    64            mov byte ptr [r1], low(r0)
$F7BA:    20            mov r0, r0
$F7BB:    63            mov byte ptr [r0], low(r3)
$F7BC:    6F            mov byte ptr [r3], low(r3)
$F7BD:    6D            mov byte ptr [r3], low(r1)
$F7BE:    6D            mov byte ptr [r3], low(r1)
$F7BF:    61            mov byte ptr [r0], low(r1)
$F7C0:    6E            mov byte ptr [r3], low(r2)
$F7C1:    64            mov byte ptr [r1], low(r0)
$F7C2:    20            mov r0, r0
$F7C3:    65            mov byte ptr [r1], low(r1)
$F7C4:    72            mov [r0], r2
$F7C5:    72            mov [r0], r2
$F7C6:    6F            mov byte ptr [r3], low(r3)
$F7C7:    72            mov [r0], r2
$F7C8:    20            mov r0, r0
$F7C9:    28            mov r2, r0
$F7CA:    68            mov byte ptr [r2], low(r0)
$F7CB:    20            mov r0, r0
$F7CC:    66            mov byte ptr [r1], low(r2)
$F7CD:    6F            mov byte ptr [r3], low(r3)
$F7CE:    72            mov [r0], r2
$F7CF:    20            mov r0, r0
$F7D0:    68            mov byte ptr [r2], low(r0)
$F7D1:    65            mov byte ptr [r1], low(r1)
$F7D2:    6C            mov byte ptr [r3], low(r0)
$F7D3:    70            mov [r0], r0
$F7D4:    29            mov r2, r1
$F7D5:    2E            mov r3, r2
$F7D6:    0A            mov r0, sp
$F7D7:    00            trap
$F7D8:    21            mov r0, r1
$F7D9:    20            mov r0, r0
$F7DA:    49            mov r2, byte ptr [r1]
$F7DB:    6E            mov byte ptr [r3], low(r2)
$F7DC:    76            mov [r1], r2
$F7DD:    61            mov byte ptr [r0], low(r1)
$F7DE:    6C            mov byte ptr [r3], low(r0)
$F7DF:    69            mov byte ptr [r2], low(r1)
$F7E0:    64            mov byte ptr [r1], low(r0)
$F7E1:    20            mov r0, r0
$F7E2:    69            mov byte ptr [r2], low(r1)
$F7E3:    6E            mov byte ptr [r3], low(r2)
$F7E4:    70            mov [r0], r0
$F7E5:    75            mov [r1], r1
$F7E6:    74            mov [r1], r0
$F7E7:    20            mov r0, r0
$F7E8:    65            mov byte ptr [r1], low(r1)
$F7E9:    72            mov [r0], r2
$F7EA:    72            mov [r0], r2
$F7EB:    6F            mov byte ptr [r3], low(r3)
$F7EC:    72            mov [r0], r2
$F7ED:    2E            mov r3, r2
$F7EE:    0A            mov r0, sp
$F7EF:    00            trap
$F7F0:    3E            add r3, r2
$F7F1:    20            mov r0, r0
$F7F2:    57            mov r1, [r3]
$F7F3:    68            mov byte ptr [r2], low(r0)
$F7F4:    69            mov byte ptr [r2], low(r1)
$F7F5:    63            mov byte ptr [r0], low(r3)
$F7F6:    68            mov byte ptr [r2], low(r0)
$F7F7:    20            mov r0, r0
$F7F8:    61            mov byte ptr [r0], low(r1)
$F7F9:    64            mov byte ptr [r1], low(r0)
$F7FA:    64            mov byte ptr [r1], low(r0)
$F7FB:    72            mov [r0], r2
$F7FC:    65            mov byte ptr [r1], low(r1)
$F7FD:    73            mov [r0], r3
$F7FE:    73            mov [r0], r3
$F7FF:    3F            add r3, r3
$F800:    20            mov r0, r0
$F801:    00            trap
$F802:    3E            add r3, r2
$F803:    20            mov r0, r0
$F804:    48            mov r2, byte ptr [r0]
$F805:    6F            mov byte ptr [r3], low(r3)
$F806:    77            mov [r1], r3
$F807:    20            mov r0, r0
$F808:    6D            mov byte ptr [r3], low(r1)
$F809:    61            mov byte ptr [r0], low(r1)
$F80A:    6E            mov byte ptr [r3], low(r2)
$F80B:    79            mov [r2], r1
$F80C:    20            mov r0, r0
$F80D:    6C            mov byte ptr [r3], low(r0)
$F80E:    69            mov byte ptr [r2], low(r1)
$F80F:    6E            mov byte ptr [r3], low(r2)
$F810:    65            mov byte ptr [r1], low(r1)
$F811:    73            mov [r0], r3
$F812:    3F            add r3, r3
$F813:    20            mov r0, r0
$F814:    00            trap
$F815:    3E            add r3, r2
$F816:    20            mov r0, r0
$F817:    52            mov r0, [r2]
$F818:    65            mov byte ptr [r1], low(r1)
$F819:    61            mov byte ptr [r0], low(r1)
$F81A:    6C            mov byte ptr [r3], low(r0)
$F81B:    6C            mov byte ptr [r3], low(r0)
$F81C:    79            mov [r2], r1
$F81D:    20            mov r0, r0
$F81E:    65            mov byte ptr [r1], low(r1)
$F81F:    78            mov [r2], r0
$F820:    65            mov byte ptr [r1], low(r1)
$F821:    63            mov byte ptr [r0], low(r3)
$F822:    20            mov r0, r0
$F823:    61            mov byte ptr [r0], low(r1)
$F824:    74            mov [r1], r0
$F825:    20            mov r0, r0
$F826:    F0            fixme: unknown opcode F0
$F827:    D6            or r0, r2
$F828:    FB            fixme: unknown opcode FB
$F829:    3F            add r3, r3
$F82A:    20            mov r0, r0
$F82B:    54            mov r1, [r0]
$F82C:    79            mov [r2], r1
$F82D:    70            mov [r0], r0
$F82E:    65            mov byte ptr [r1], low(r1)
$F82F:    20            mov r0, r0
$F830:    59            mov r2, [r1]
$F831:    20            mov r0, r0
$F832:    69            mov byte ptr [r2], low(r1)
$F833:    66            mov byte ptr [r1], low(r2)
$F834:    20            mov r0, r0
$F835:    73            mov [r0], r3
$F836:    6F            mov byte ptr [r3], low(r3)
$F837:    3A            add r2, r2
$F838:    20            mov r0, r0
$F839:    00            trap
$F83A:    21            mov r0, r1
$F83B:    20            mov r0, r0
$F83C:    43            mov r0, byte ptr [r3]
$F83D:    61            mov byte ptr [r0], low(r1)
$F83E:    6E            mov byte ptr [r3], low(r2)
$F83F:    63            mov byte ptr [r0], low(r3)
$F840:    65            mov byte ptr [r1], low(r1)
$F841:    6C            mov byte ptr [r3], low(r0)
$F842:    6C            mov byte ptr [r3], low(r0)
$F843:    65            mov byte ptr [r1], low(r1)
$F844:    64            mov byte ptr [r1], low(r0)
$F845:    20            mov r0, r0
$F846:    61            mov byte ptr [r0], low(r1)
$F847:    63            mov byte ptr [r0], low(r3)
$F848:    74            mov [r1], r0
$F849:    69            mov byte ptr [r2], low(r1)
$F84A:    6F            mov byte ptr [r3], low(r3)
$F84B:    6E            mov byte ptr [r3], low(r2)
$F84C:    20            mov r0, r0
$F84D:    65            mov byte ptr [r1], low(r1)
$F84E:    72            mov [r0], r2
$F84F:    72            mov [r0], r2
$F850:    6F            mov byte ptr [r3], low(r3)
$F851:    72            mov [r0], r2
$F852:    2E            mov r3, r2
$F853:    0A            mov r0, sp
$F854:    00            trap
$F855:    43            mov r0, byte ptr [r3]
$F856:    6F            mov byte ptr [r3], low(r3)
$F857:    6E            mov byte ptr [r3], low(r2)
$F858:    74            mov [r1], r0
$F859:    69            mov byte ptr [r2], low(r1)
$F85A:    6E            mov byte ptr [r3], low(r2)
$F85B:    75            mov [r1], r1
$F85C:    69            mov byte ptr [r2], low(r1)
$F85D:    6E            mov byte ptr [r3], low(r2)
$F85E:    67            mov byte ptr [r1], low(r3)
$F85F:    2E            mov r3, r2
$F860:    0A            mov r0, sp
$F861:    00            trap
$F862:    4C            mov r3, byte ptr [r0]
$F863:    6F            mov byte ptr [r3], low(r3)
$F864:    61            mov byte ptr [r0], low(r1)
$F865:    64            mov byte ptr [r1], low(r0)
$F866:    65            mov byte ptr [r1], low(r1)
$F867:    64            mov byte ptr [r1], low(r0)
$F868:    2E            mov r3, r2
$F869:    0A            mov r0, sp
$F86A:    00            trap
$F86B:    21            mov r0, r1
$F86C:    20            mov r0, r0
$F86D:    44            mov r1, byte ptr [r0]
$F86E:    72            mov [r0], r2
$F86F:    79            mov [r2], r1
$F870:    20            mov r0, r0
$F871:    73            mov [r0], r3
$F872:    74            mov [r1], r0
$F873:    61            mov byte ptr [r0], low(r1)
$F874:    63            mov byte ptr [r0], low(r3)
$F875:    6B            mov byte ptr [r2], low(r3)
$F876:    2E            mov r3, r2
$F877:    20            mov r0, r0
$F878:    48            mov r2, byte ptr [r0]
$F879:    61            mov byte ptr [r0], low(r1)
$F87A:    6C            mov byte ptr [r3], low(r0)
$F87B:    74            mov [r1], r0
$F87C:    69            mov byte ptr [r2], low(r1)
$F87D:    6E            mov byte ptr [r3], low(r2)
$F87E:    67            mov byte ptr [r1], low(r3)
$F87F:    20            mov r0, r0
$F880:    6D            mov byte ptr [r3], low(r1)
$F881:    61            mov byte ptr [r0], low(r1)
$F882:    63            mov byte ptr [r0], low(r3)
$F883:    68            mov byte ptr [r2], low(r0)
$F884:    69            mov byte ptr [r2], low(r1)
$F885:    6E            mov byte ptr [r3], low(r2)
$F886:    65            mov byte ptr [r1], low(r1)
$F887:    2E            mov r3, r2
$F888:    0A            mov r0, sp
$F889:    00            trap
$F88A:    3E            add r3, r2
$F88B:    20            mov r0, r0
$F88C:    46            mov r1, byte ptr [r2]
$F88D:    69            mov byte ptr [r2], low(r1)
$F88E:    6C            mov byte ptr [r3], low(r0)
$F88F:    65            mov byte ptr [r1], low(r1)
$F890:    6E            mov byte ptr [r3], low(r2)
$F891:    61            mov byte ptr [r0], low(r1)
$F892:    6D            mov byte ptr [r3], low(r1)
$F893:    65            mov byte ptr [r1], low(r1)
$F894:    3F            add r3, r3
$F895:    20            mov r0, r0
$F896:    00            trap
$F897:    21            mov r0, r1
$F898:    20            mov r0, r0
$F899:    46            mov r1, byte ptr [r2]
$F89A:    69            mov byte ptr [r2], low(r1)
$F89B:    6C            mov byte ptr [r3], low(r0)
$F89C:    65            mov byte ptr [r1], low(r1)
$F89D:    20            mov r0, r0
$F89E:    6E            mov byte ptr [r3], low(r2)
$F89F:    6F            mov byte ptr [r3], low(r3)
$F8A0:    74            mov [r1], r0
$F8A1:    20            mov r0, r0
$F8A2:    66            mov byte ptr [r1], low(r2)
$F8A3:    6F            mov byte ptr [r3], low(r3)
$F8A4:    75            mov [r1], r1
$F8A5:    6E            mov byte ptr [r3], low(r2)
$F8A6:    64            mov byte ptr [r1], low(r0)
$F8A7:    20            mov r0, r0
$F8A8:    65            mov byte ptr [r1], low(r1)
$F8A9:    72            mov [r0], r2
$F8AA:    72            mov [r0], r2
$F8AB:    6F            mov byte ptr [r3], low(r3)
$F8AC:    72            mov [r0], r2
$F8AD:    2E            mov r3, r2
$F8AE:    0A            mov r0, sp
$F8AF:    00            trap
$F8B0:    3E            add r3, r2
$F8B1:    20            mov r0, r0
$F8B2:    45            mov r1, byte ptr [r1]
$F8B3:    6E            mov byte ptr [r3], low(r2)
$F8B4:    74            mov [r1], r0
$F8B5:    65            mov byte ptr [r1], low(r1)
$F8B6:    72            mov [r0], r2
$F8B7:    20            mov r0, r0
$F8B8:    68            mov byte ptr [r2], low(r0)
$F8B9:    65            mov byte ptr [r1], low(r1)
$F8BA:    78            mov [r2], r0
$F8BB:    20            mov r0, r0
$F8BC:    64            mov byte ptr [r1], low(r0)
$F8BD:    61            mov byte ptr [r0], low(r1)
$F8BE:    74            mov [r1], r0
$F8BF:    61            mov byte ptr [r0], low(r1)
$F8C0:    2E            mov r3, r2
$F8C1:    20            mov r0, r0
$F8C2:    45            mov r1, byte ptr [r1]
$F8C3:    6E            mov byte ptr [r3], low(r2)
$F8C4:    64            mov byte ptr [r1], low(r0)
$F8C5:    20            mov r0, r0
$F8C6:    77            mov [r1], r3
$F8C7:    69            mov byte ptr [r2], low(r1)
$F8C8:    74            mov [r1], r0
$F8C9:    68            mov byte ptr [r2], low(r0)
$F8CA:    20            mov r0, r0
$F8CB:    64            mov byte ptr [r1], low(r0)
$F8CC:    6F            mov byte ptr [r3], low(r3)
$F8CD:    74            mov [r1], r0
$F8CE:    20            mov r0, r0
$F8CF:    22            mov r0, r2
$F8D0:    2E            mov r3, r2
$F8D1:    22            mov r0, r2
$F8D2:    20            mov r0, r0
$F8D3:    2B            mov r2, r3
$F8D4:    20            mov r0, r0
$F8D5:    6E            mov byte ptr [r3], low(r2)
$F8D6:    65            mov byte ptr [r1], low(r1)
$F8D7:    77            mov [r1], r3
$F8D8:    6C            mov byte ptr [r3], low(r0)
$F8D9:    69            mov byte ptr [r2], low(r1)
$F8DA:    6E            mov byte ptr [r3], low(r2)
$F8DB:    65            mov byte ptr [r1], low(r1)
$F8DC:    3A            add r2, r2
$F8DD:    0A            mov r0, sp
$F8DE:    00            trap
$F8DF:    57            mov r1, [r3]
$F8E0:    6F            mov byte ptr [r3], low(r3)
$F8E1:    77            mov [r1], r3
$F8E2:    2C            mov r3, r0
$F8E3:    20            mov r0, r0
$F8E4:    75            mov [r1], r1
$F8E5:    6E            mov byte ptr [r3], low(r2)
$F8E6:    64            mov byte ptr [r1], low(r0)
$F8E7:    6F            mov byte ptr [r3], low(r3)
$F8E8:    63            mov byte ptr [r0], low(r3)
$F8E9:    75            mov [r1], r1
$F8EA:    6D            mov byte ptr [r3], low(r1)
$F8EB:    65            mov byte ptr [r1], low(r1)
$F8EC:    6E            mov byte ptr [r3], low(r2)
$F8ED:    74            mov [r1], r0
$F8EE:    65            mov byte ptr [r1], low(r1)
$F8EF:    64            mov byte ptr [r1], low(r0)
$F8F0:    20            mov r0, r0
$F8F1:    6D            mov byte ptr [r3], low(r1)
$F8F2:    6F            mov byte ptr [r3], low(r3)
$F8F3:    6E            mov byte ptr [r3], low(r2)
$F8F4:    69            mov byte ptr [r2], low(r1)
$F8F5:    74            mov [r1], r0
$F8F6:    6F            mov byte ptr [r3], low(r3)
$F8F7:    72            mov [r0], r2
$F8F8:    20            mov r0, r0
$F8F9:    63            mov byte ptr [r0], low(r3)
$F8FA:    6F            mov byte ptr [r3], low(r3)
$F8FB:    6D            mov byte ptr [r3], low(r1)
$F8FC:    6D            mov byte ptr [r3], low(r1)
$F8FD:    61            mov byte ptr [r0], low(r1)
$F8FE:    6E            mov byte ptr [r3], low(r2)
$F8FF:    64            mov byte ptr [r1], low(r0)
$F900:    21            mov r0, r1
$F901:    20            mov r0, r0
$F902:    46            mov r1, byte ptr [r2]
$F903:    4F            mov r3, byte ptr [r3]
$F904:    4F            mov r3, byte ptr [r3]
$F905:    4C            mov r3, byte ptr [r0]
$F906:    53            mov r0, [r3]
$F907:    32            add r0, r2
$F908:    30            add r0, r0
$F909:    32            add r0, r2
$F90A:    33            add r0, r3
$F90B:    5F            mov r3, [r3]
$F90C:    7B            mov [r2], r3
$F90D:    53            mov r0, [r3]
$F90E:    65            mov byte ptr [r1], low(r1)
$F90F:    63            mov byte ptr [r0], low(r3)
$F910:    72            mov [r0], r2
$F911:    65            mov byte ptr [r1], low(r1)
$F912:    74            mov [r1], r0
$F913:    F0            fixme: unknown opcode F0
$F914:    00            trap
$F915:    E0 78 F0      add r0, $F078
$F918:    01 E0 43      mul r0, $43E0
$F91B:    6F            mov byte ptr [r3], low(r3)
$F91C:    6D            mov byte ptr [r3], low(r1)
$F91D:    6D            mov byte ptr [r3], low(r1)
$F91E:    61            mov byte ptr [r0], low(r1)
$F91F:    6E            mov byte ptr [r3], low(r2)
$F920:    64            mov byte ptr [r1], low(r0)
$F921:    7D            mov [r3], r1
$F922:    0A            mov r0, sp
$F923:    00            trap
$F924:    41            mov r0, byte ptr [r1]
$F925:    76            mov [r1], r2
$F926:    61            mov byte ptr [r0], low(r1)
$F927:    69            mov byte ptr [r2], low(r1)
$F928:    6C            mov byte ptr [r3], low(r0)
$F929:    61            mov byte ptr [r0], low(r1)
$F92A:    62            mov byte ptr [r0], low(r2)
$F92B:    6C            mov byte ptr [r3], low(r0)
$F92C:    65            mov byte ptr [r1], low(r1)
$F92D:    20            mov r0, r0
$F92E:    63            mov byte ptr [r0], low(r3)
$F92F:    6F            mov byte ptr [r3], low(r3)
$F930:    6D            mov byte ptr [r3], low(r1)
$F931:    6D            mov byte ptr [r3], low(r1)
$F932:    61            mov byte ptr [r0], low(r1)
$F933:    6E            mov byte ptr [r3], low(r2)
$F934:    64            mov byte ptr [r1], low(r0)
$F935:    73            mov [r0], r3
$F936:    3A            add r2, r2
$F937:    0A            mov r0, sp
$F938:    72            mov [r0], r2
$F939:    20            mov r0, r0
$F93A:    20            mov r0, r0
$F93B:    20            mov r0, r0
$F93C:    3A            add r2, r2
$F93D:    3A            add r2, r2
$F93E:    20            mov r0, r0
$F93F:    70            mov [r0], r0
$F940:    72            mov [r0], r2
$F941:    69            mov byte ptr [r2], low(r1)
$F942:    6E            mov byte ptr [r3], low(r2)
$F943:    74            mov [r1], r0
$F944:    20            mov r0, r0
$F945:    6D            mov byte ptr [r3], low(r1)
$F946:    65            mov byte ptr [r1], low(r1)
$F947:    6D            mov byte ptr [r3], low(r1)
$F948:    6F            mov byte ptr [r3], low(r3)
$F949:    72            mov [r0], r2
$F94A:    79            mov [r2], r1
$F94B:    20            mov r0, r0
$F94C:    61            mov byte ptr [r0], low(r1)
$F94D:    73            mov [r0], r3
$F94E:    20            mov r0, r0
$F94F:    68            mov byte ptr [r2], low(r0)
$F950:    65            mov byte ptr [r1], low(r1)
$F951:    78            mov [r2], r0
$F952:    0A            mov r0, sp
$F953:    70            mov [r0], r0
$F954:    20            mov r0, r0
$F955:    20            mov r0, r0
$F956:    20            mov r0, r0
$F957:    3A            add r2, r2
$F958:    3A            add r2, r2
$F959:    20            mov r0, r0
$F95A:    70            mov [r0], r0
$F95B:    72            mov [r0], r2
$F95C:    69            mov byte ptr [r2], low(r1)
$F95D:    6E            mov byte ptr [r3], low(r2)
$F95E:    74            mov [r1], r0
$F95F:    20            mov r0, r0
$F960:    6D            mov byte ptr [r3], low(r1)
$F961:    65            mov byte ptr [r1], low(r1)
$F962:    6D            mov byte ptr [r3], low(r1)
$F963:    6F            mov byte ptr [r3], low(r3)
$F964:    72            mov [r0], r2
$F965:    79            mov [r2], r1
$F966:    20            mov r0, r0
$F967:    61            mov byte ptr [r0], low(r1)
$F968:    73            mov [r0], r3
$F969:    20            mov r0, r0
$F96A:    74            mov [r1], r0
$F96B:    65            mov byte ptr [r1], low(r1)
$F96C:    78            mov [r2], r0
$F96D:    74            mov [r1], r0
$F96E:    0A            mov r0, sp
$F96F:    77            mov [r1], r3
$F970:    20            mov r0, r0
$F971:    20            mov r0, r0
$F972:    20            mov r0, r0
$F973:    3A            add r2, r2
$F974:    3A            add r2, r2
$F975:    20            mov r0, r0
$F976:    77            mov [r1], r3
$F977:    72            mov [r0], r2
$F978:    69            mov byte ptr [r2], low(r1)
$F979:    74            mov [r1], r0
$F97A:    65            mov byte ptr [r1], low(r1)
$F97B:    20            mov r0, r0
$F97C:    68            mov byte ptr [r2], low(r0)
$F97D:    65            mov byte ptr [r1], low(r1)
$F97E:    78            mov [r2], r0
$F97F:    20            mov r0, r0
$F980:    64            mov byte ptr [r1], low(r0)
$F981:    61            mov byte ptr [r0], low(r1)
$F982:    74            mov [r1], r0
$F983:    61            mov byte ptr [r0], low(r1)
$F984:    20            mov r0, r0
$F985:    74            mov [r1], r0
$F986:    6F            mov byte ptr [r3], low(r3)
$F987:    20            mov r0, r0
$F988:    6D            mov byte ptr [r3], low(r1)
$F989:    65            mov byte ptr [r1], low(r1)
$F98A:    6D            mov byte ptr [r3], low(r1)
$F98B:    6F            mov byte ptr [r3], low(r3)
$F98C:    72            mov [r0], r2
$F98D:    79            mov [r2], r1
$F98E:    0A            mov r0, sp
$F98F:    78            mov [r2], r0
$F990:    20            mov r0, r0
$F991:    20            mov r0, r0
$F992:    20            mov r0, r0
$F993:    3A            add r2, r2
$F994:    3A            add r2, r2
$F995:    20            mov r0, r0
$F996:    65            mov byte ptr [r1], low(r1)
$F997:    78            mov [r2], r0
$F998:    65            mov byte ptr [r1], low(r1)
$F999:    63            mov byte ptr [r0], low(r3)
$F99A:    75            mov [r1], r1
$F99B:    74            mov [r1], r0
$F99C:    65            mov byte ptr [r1], low(r1)
$F99D:    20            mov r0, r0
$F99E:    6D            mov byte ptr [r3], low(r1)
$F99F:    65            mov byte ptr [r1], low(r1)
$F9A0:    6D            mov byte ptr [r3], low(r1)
$F9A1:    6F            mov byte ptr [r3], low(r3)
$F9A2:    72            mov [r0], r2
$F9A3:    79            mov [r2], r1
$F9A4:    0A            mov r0, sp
$F9A5:    72            mov [r0], r2
$F9A6:    66            mov byte ptr [r1], low(r2)
$F9A7:    20            mov r0, r0
$F9A8:    20            mov r0, r0
$F9A9:    3A            add r2, r2
$F9AA:    3A            add r2, r2
$F9AB:    20            mov r0, r0
$F9AC:    6C            mov byte ptr [r3], low(r0)
$F9AD:    6F            mov byte ptr [r3], low(r3)
$F9AE:    61            mov byte ptr [r0], low(r1)
$F9AF:    64            mov byte ptr [r1], low(r0)
$F9B0:    20            mov r0, r0
$F9B1:    6D            mov byte ptr [r3], low(r1)
$F9B2:    65            mov byte ptr [r1], low(r1)
$F9B3:    6D            mov byte ptr [r3], low(r1)
$F9B4:    6F            mov byte ptr [r3], low(r3)
$F9B5:    72            mov [r0], r2
$F9B6:    79            mov [r2], r1
$F9B7:    20            mov r0, r0
$F9B8:    66            mov byte ptr [r1], low(r2)
$F9B9:    72            mov [r0], r2
$F9BA:    6F            mov byte ptr [r3], low(r3)
$F9BB:    6D            mov byte ptr [r3], low(r1)
$F9BC:    20            mov r0, r0
$F9BD:    66            mov byte ptr [r1], low(r2)
$F9BE:    69            mov byte ptr [r2], low(r1)
$F9BF:    6C            mov byte ptr [r3], low(r0)
$F9C0:    65            mov byte ptr [r1], low(r1)
$F9C1:    0A            mov r0, sp
$F9C2:    6C            mov byte ptr [r3], low(r0)
$F9C3:    73            mov [r0], r3
$F9C4:    20            mov r0, r0
$F9C5:    20            mov r0, r0
$F9C6:    3A            add r2, r2
$F9C7:    3A            add r2, r2
$F9C8:    20            mov r0, r0
$F9C9:    70            mov [r0], r0
$F9CA:    72            mov [r0], r2
$F9CB:    69            mov byte ptr [r2], low(r1)
$F9CC:    6E            mov byte ptr [r3], low(r2)
$F9CD:    74            mov [r1], r0
$F9CE:    20            mov r0, r0
$F9CF:    66            mov byte ptr [r1], low(r2)
$F9D0:    69            mov byte ptr [r2], low(r1)
$F9D1:    6C            mov byte ptr [r3], low(r0)
$F9D2:    65            mov byte ptr [r1], low(r1)
$F9D3:    20            mov r0, r0
$F9D4:    69            mov byte ptr [r2], low(r1)
$F9D5:    6E            mov byte ptr [r3], low(r2)
$F9D6:    64            mov byte ptr [r1], low(r0)
$F9D7:    65            mov byte ptr [r1], low(r1)
$F9D8:    78            mov [r2], r0
$F9D9:    0A            mov r0, sp
$F9DA:    68            mov byte ptr [r2], low(r0)
$F9DB:    20            mov r0, r0
$F9DC:    20            mov r0, r0
$F9DD:    20            mov r0, r0
$F9DE:    3A            add r2, r2
$F9DF:    3A            add r2, r2
$F9E0:    20            mov r0, r0
$F9E1:    70            mov [r0], r0
$F9E2:    72            mov [r0], r2
$F9E3:    69            mov byte ptr [r2], low(r1)
$F9E4:    6E            mov byte ptr [r3], low(r2)
$F9E5:    74            mov [r1], r0
$F9E6:    20            mov r0, r0
$F9E7:    74            mov [r1], r0
$F9E8:    68            mov byte ptr [r2], low(r0)
$F9E9:    69            mov byte ptr [r2], low(r1)
$F9EA:    73            mov [r0], r3
$F9EB:    20            mov r0, r0
$F9EC:    68            mov byte ptr [r2], low(r0)
$F9ED:    65            mov byte ptr [r1], low(r1)
$F9EE:    6C            mov byte ptr [r3], low(r0)
$F9EF:    70            mov [r0], r0
$F9F0:    20            mov r0, r0
$F9F1:    6D            mov byte ptr [r3], low(r1)
$F9F2:    65            mov byte ptr [r1], low(r1)
$F9F3:    73            mov [r0], r3
$F9F4:    73            mov [r0], r3
$F9F5:    61            mov byte ptr [r0], low(r1)
$F9F6:    67            mov byte ptr [r1], low(r3)
$F9F7:    65            mov byte ptr [r1], low(r1)
$F9F8:    0A            mov r0, sp
$F9F9:    63            mov byte ptr [r0], low(r3)
$F9FA:    20            mov r0, r0
$F9FB:    20            mov r0, r0
$F9FC:    20            mov r0, r0
$F9FD:    3A            add r2, r2
$F9FE:    3A            add r2, r2
$F9FF:    20            mov r0, r0
$FA00:    65            mov byte ptr [r1], low(r1)
$FA01:    78            mov [r2], r0
$FA02:    69            mov byte ptr [r2], low(r1)
$FA03:    74            mov [r1], r0
$FA04:    20            mov r0, r0
$FA05:    6D            mov byte ptr [r3], low(r1)
$FA06:    6F            mov byte ptr [r3], low(r3)
$FA07:    6E            mov byte ptr [r3], low(r2)
$FA08:    69            mov byte ptr [r2], low(r1)
$FA09:    74            mov [r1], r0
$FA0A:    6F            mov byte ptr [r3], low(r3)
$FA0B:    72            mov [r0], r2
$FA0C:    20            mov r0, r0
$FA0D:    61            mov byte ptr [r0], low(r1)
$FA0E:    6E            mov byte ptr [r3], low(r2)
$FA0F:    64            mov byte ptr [r1], low(r0)
$FA10:    20            mov r0, r0
$FA11:    63            mov byte ptr [r0], low(r3)
$FA12:    6F            mov byte ptr [r3], low(r3)
$FA13:    6E            mov byte ptr [r3], low(r2)
$FA14:    74            mov [r1], r0
$FA15:    69            mov byte ptr [r2], low(r1)
$FA16:    6E            mov byte ptr [r3], low(r2)
$FA17:    75            mov [r1], r1
$FA18:    65            mov byte ptr [r1], low(r1)
$FA19:    0A            mov r0, sp
$FA1A:    50            mov r0, [r0]
$FA1B:    6C            mov byte ptr [r3], low(r0)
$FA1C:    65            mov byte ptr [r1], low(r1)
$FA1D:    61            mov byte ptr [r0], low(r1)
$FA1E:    73            mov [r0], r3
$FA1F:    65            mov byte ptr [r1], low(r1)
$FA20:    20            mov r0, r0
$FA21:    65            mov byte ptr [r1], low(r1)
$FA22:    6E            mov byte ptr [r3], low(r2)
$FA23:    74            mov [r1], r0
$FA24:    65            mov byte ptr [r1], low(r1)
$FA25:    72            mov [r0], r2
$FA26:    20            mov r0, r0
$FA27:    68            mov byte ptr [r2], low(r0)
$FA28:    65            mov byte ptr [r1], low(r1)
$FA29:    78            mov [r2], r0
$FA2A:    20            mov r0, r0
$FA2B:    6E            mov byte ptr [r3], low(r2)
$FA2C:    75            mov [r1], r1
$FA2D:    6D            mov byte ptr [r3], low(r1)
$FA2E:    62            mov byte ptr [r0], low(r2)
$FA2F:    65            mov byte ptr [r1], low(r1)
$FA30:    72            mov [r0], r2
$FA31:    73            mov [r0], r3
$FA32:    20            mov r0, r0
$FA33:    77            mov [r1], r3
$FA34:    68            mov byte ptr [r2], low(r0)
$FA35:    65            mov byte ptr [r1], low(r1)
$FA36:    6E            mov byte ptr [r3], low(r2)
$FA37:    20            mov r0, r0
$FA38:    70            mov [r0], r0
$FA39:    72            mov [r0], r2
$FA3A:    6F            mov byte ptr [r3], low(r3)
$FA3B:    6D            mov byte ptr [r3], low(r1)
$FA3C:    70            mov [r0], r0
$FA3D:    74            mov [r1], r0
$FA3E:    65            mov byte ptr [r1], low(r1)
$FA3F:    64            mov byte ptr [r1], low(r0)
$FA40:    2E            mov r3, r2
$FA41:    0A            mov r0, sp
$FA42:    49            mov r2, byte ptr [r1]
$FA43:    66            mov byte ptr [r1], low(r2)
$FA44:    20            mov r0, r0
$FA45:    6E            mov byte ptr [r3], low(r2)
$FA46:    65            mov byte ptr [r1], low(r1)
$FA47:    63            mov byte ptr [r0], low(r3)
$FA48:    65            mov byte ptr [r1], low(r1)
$FA49:    73            mov [r0], r3
$FA4A:    73            mov [r0], r3
$FA4B:    61            mov byte ptr [r0], low(r1)
$FA4C:    72            mov [r0], r2
$FA4D:    79            mov [r2], r1
$FA4E:    20            mov r0, r0
$FA4F:    66            mov byte ptr [r1], low(r2)
$FA50:    6F            mov byte ptr [r3], low(r3)
$FA51:    72            mov [r0], r2
$FA52:    20            mov r0, r0
$FA53:    64            mov byte ptr [r1], low(r0)
$FA54:    65            mov byte ptr [r1], low(r1)
$FA55:    62            mov byte ptr [r0], low(r2)
$FA56:    75            mov [r1], r1
$FA57:    67            mov byte ptr [r1], low(r3)
$FA58:    67            mov byte ptr [r1], low(r3)
$FA59:    69            mov byte ptr [r2], low(r1)
$FA5A:    6E            mov byte ptr [r3], low(r2)
$FA5B:    67            mov byte ptr [r1], low(r3)
$FA5C:    2C            mov r3, r0
$FA5D:    20            mov r0, r0
$FA5E:    79            mov [r2], r1
$FA5F:    6F            mov byte ptr [r3], low(r3)
$FA60:    75            mov [r1], r1
$FA61:    20            mov r0, r0
$FA62:    63            mov byte ptr [r0], low(r3)
$FA63:    61            mov byte ptr [r0], low(r1)
$FA64:    6E            mov byte ptr [r3], low(r2)
$FA65:    20            mov r0, r0
$FA66:    62            mov byte ptr [r0], low(r2)
$FA67:    72            mov [r0], r2
$FA68:    65            mov byte ptr [r1], low(r1)
$FA69:    61            mov byte ptr [r0], low(r1)
$FA6A:    6B            mov byte ptr [r2], low(r3)
$FA6B:    20            mov r0, r0
$FA6C:    69            mov byte ptr [r2], low(r1)
$FA6D:    6E            mov byte ptr [r3], low(r2)
$FA6E:    74            mov [r1], r0
$FA6F:    6F            mov byte ptr [r3], low(r3)
$FA70:    20            mov r0, r0
$FA71:    6D            mov byte ptr [r3], low(r1)
$FA72:    6F            mov byte ptr [r3], low(r3)
$FA73:    6E            mov byte ptr [r3], low(r2)
$FA74:    69            mov byte ptr [r2], low(r1)
$FA75:    74            mov [r1], r0
$FA76:    6F            mov byte ptr [r3], low(r3)
$FA77:    72            mov [r0], r2
$FA78:    0A            mov r0, sp
$FA79:    77            mov [r1], r3
$FA7A:    69            mov byte ptr [r2], low(r1)
$FA7B:    74            mov [r1], r0
$FA7C:    68            mov byte ptr [r2], low(r0)
$FA7D:    20            mov r0, r0
$FA7E:    69            mov byte ptr [r2], low(r1)
$FA7F:    6E            mov byte ptr [r3], low(r2)
$FA80:    73            mov [r0], r3
$FA81:    74            mov [r1], r0
$FA82:    72            mov [r0], r2
$FA83:    75            mov [r1], r1
$FA84:    63            mov byte ptr [r0], low(r3)
$FA85:    74            mov [r1], r0
$FA86:    69            mov byte ptr [r2], low(r1)
$FA87:    6F            mov byte ptr [r3], low(r3)
$FA88:    6E            mov byte ptr [r3], low(r2)
$FA89:    20            mov r0, r0
$FA8A:    42            mov r0, byte ptr [r2]
$FA8B:    52            mov r0, [r2]
$FA8C:    4B            mov r2, byte ptr [r3]
$FA8D:    20            mov r0, r0
$FA8E:    28            mov r2, r0
$FA8F:    30            add r0, r0
$FA90:    78            mov [r2], r0
$FA91:    30            add r0, r0
$FA92:    30            add r0, r0
$FA93:    29            mov r2, r1
$FA94:    20            mov r0, r0
$FA95:    61            mov byte ptr [r0], low(r1)
$FA96:    6E            mov byte ptr [r3], low(r2)
$FA97:    64            mov byte ptr [r1], low(r0)
$FA98:    20            mov r0, r0
$FA99:    63            mov byte ptr [r0], low(r3)
$FA9A:    6F            mov byte ptr [r3], low(r3)
$FA9B:    6E            mov byte ptr [r3], low(r2)
$FA9C:    74            mov [r1], r0
$FA9D:    69            mov byte ptr [r2], low(r1)
$FA9E:    6E            mov byte ptr [r3], low(r2)
$FA9F:    75            mov [r1], r1
$FAA0:    65            mov byte ptr [r1], low(r1)
$FAA1:    20            mov r0, r0
$FAA2:    77            mov [r1], r3
$FAA3:    69            mov byte ptr [r2], low(r1)
$FAA4:    74            mov [r1], r0
$FAA5:    68            mov byte ptr [r2], low(r0)
$FAA6:    20            mov r0, r0
$FAA7:    27            mov r1, r3
$FAA8:    63            mov byte ptr [r0], low(r3)
$FAA9:    27            mov r1, r3
$FAAA:    0A            mov r0, sp
$FAAB:    4E            mov r3, byte ptr [r2]
$FAAC:    6F            mov byte ptr [r3], low(r3)
$FAAD:    74            mov [r1], r0
$FAAE:    65            mov byte ptr [r1], low(r1)
$FAAF:    3A            add r2, r2
$FAB0:    20            mov r0, r0
$FAB1:    6D            mov byte ptr [r3], low(r1)
$FAB2:    65            mov byte ptr [r1], low(r1)
$FAB3:    6D            mov byte ptr [r3], low(r1)
$FAB4:    6F            mov byte ptr [r3], low(r3)
$FAB5:    72            mov [r0], r2
$FAB6:    79            mov [r2], r1
$FAB7:    20            mov r0, r0
$FAB8:    72            mov [r0], r2
$FAB9:    65            mov byte ptr [r1], low(r1)
$FABA:    67            mov byte ptr [r1], low(r3)
$FABB:    69            mov byte ptr [r2], low(r1)
$FABC:    6F            mov byte ptr [r3], low(r3)
$FABD:    6E            mov byte ptr [r3], low(r2)
$FABE:    20            mov r0, r0
$FABF:    45            mov r1, byte ptr [r1]
$FAC0:    30            add r0, r0
$FAC1:    30            add r0, r0
$FAC2:    30            add r0, r0
$FAC3:    2D            mov r3, r1
$FAC4:    46            mov r1, byte ptr [r2]
$FAC5:    46            mov r1, byte ptr [r2]
$FAC6:    46            mov r1, byte ptr [r2]
$FAC7:    46            mov r1, byte ptr [r2]
$FAC8:    20            mov r0, r0
$FAC9:    69            mov byte ptr [r2], low(r1)
$FACA:    73            mov [r0], r3
$FACB:    20            mov r0, r0
$FACC:    75            mov [r1], r1
$FACD:    73            mov [r0], r3
$FACE:    65            mov byte ptr [r1], low(r1)
$FACF:    64            mov byte ptr [r1], low(r0)
$FAD0:    20            mov r0, r0
$FAD1:    62            mov byte ptr [r0], low(r2)
$FAD2:    79            mov [r2], r1
$FAD3:    20            mov r0, r0
$FAD4:    6D            mov byte ptr [r3], low(r1)
$FAD5:    6F            mov byte ptr [r3], low(r3)
$FAD6:    6E            mov byte ptr [r3], low(r2)
$FAD7:    69            mov byte ptr [r2], low(r1)
$FAD8:    74            mov [r1], r0
$FAD9:    6F            mov byte ptr [r3], low(r3)
$FADA:    72            mov [r0], r2
$FADB:    0A            mov r0, sp
$FADC:    00            trap
$FADD:    42            mov r0, byte ptr [r2]
$FADE:    4C            mov r3, byte ptr [r0]
$FADF:    4B            mov r2, byte ptr [r3]
$FAE0:    20            mov r0, r0
$FAE1:    20            mov r0, r0
$FAE2:    53            mov r0, [r3]
$FAE3:    49            mov r2, byte ptr [r1]
$FAE4:    5A            mov r2, [r2]
$FAE5:    45            mov r1, byte ptr [r1]
$FAE6:    20            mov r0, r0
$FAE7:    20            mov r0, r0
$FAE8:    4E            mov r3, byte ptr [r2]
$FAE9:    41            mov r0, byte ptr [r1]
$FAEA:    4D            mov r3, byte ptr [r1]
$FAEB:    45            mov r1, byte ptr [r1]
$FAEC:    0A            mov r0, sp
$FAED:    3D            add r3, r1
$FAEE:    3D            add r3, r1
$FAEF:    3D            add r3, r1
$FAF0:    3D            add r3, r1
$FAF1:    3D            add r3, r1
$FAF2:    3D            add r3, r1
$FAF3:    3D            add r3, r1
$FAF4:    3D            add r3, r1
$FAF5:    3D            add r3, r1
$FAF6:    3D            add r3, r1
$FAF7:    3D            add r3, r1
$FAF8:    3D            add r3, r1
$FAF9:    3D            add r3, r1
$FAFA:    3D            add r3, r1
$FAFB:    3D            add r3, r1
$FAFC:    3D            add r3, r1
$FAFD:    3D            add r3, r1
$FAFE:    3D            add r3, r1
$FAFF:    3D            add r3, r1
$FB00:    3D            add r3, r1
$FB01:    3D            add r3, r1
$FB02:    3D            add r3, r1
$FB03:    3D            add r3, r1
$FB04:    0A            mov r0, sp
$FB05:    00            trap
$FB06:    F1            fixme: unknown opcode F1
$FB07:    CE FB 20      or r0, $20FB
$FB0A:    20            mov r0, r0
$FB0B:    20            mov r0, r0
$FB0C:    F0            fixme: unknown opcode F0
$FB0D:    D6            or r0, r2
$FB0E:    FB            fixme: unknown opcode FB
$FB0F:    20            mov r0, r0
$FB10:    20            mov r0, r0
$FB11:    00            trap
$FB12:    52            mov r0, [r2]
$FB13:    65            mov byte ptr [r1], low(r1)
$FB14:    61            mov byte ptr [r0], low(r1)
$FB15:    64            mov byte ptr [r1], low(r0)
$FB16:    79            mov [r2], r1
$FB17:    2E            mov r3, r2
$FB18:    0A            mov r0, sp
$FB19:    3E            add r3, r2
$FB1A:    20            mov r0, r0
$FB1B:    00            trap
$FB1C:    2A            mov r2, r2
$FB1D:    2A            mov r2, r2
$FB1E:    2A            mov r2, r2
$FB1F:    20            mov r0, r0
$FB20:    42            mov r0, byte ptr [r2]
$FB21:    52            mov r0, [r2]
$FB22:    45            mov r1, byte ptr [r1]
$FB23:    41            mov r0, byte ptr [r1]
$FB24:    4B            mov r2, byte ptr [r3]
$FB25:    20            mov r0, r0
$FB26:    49            mov r2, byte ptr [r1]
$FB27:    4E            mov r3, byte ptr [r2]
$FB28:    54            mov r1, [r0]
$FB29:    4F            mov r3, byte ptr [r3]
$FB2A:    20            mov r0, r0
$FB2B:    4D            mov r3, byte ptr [r1]
$FB2C:    4F            mov r3, byte ptr [r3]
$FB2D:    4E            mov r3, byte ptr [r2]
$FB2E:    49            mov r2, byte ptr [r1]
$FB2F:    54            mov r1, [r0]
$FB30:    4F            mov r3, byte ptr [r3]
$FB31:    52            mov r0, [r2]
$FB32:    20            mov r0, r0
$FB33:    41            mov r0, byte ptr [r1]
$FB34:    54            mov r1, [r0]
$FB35:    20            mov r0, r0
$FB36:    24            mov r1, r0
$FB37:    F0            fixme: unknown opcode F0
$FB38:    C0            fixme: unknown opcode C0
$FB39:    FB            fixme: unknown opcode FB
$FB3A:    20            mov r0, r0
$FB3B:    2A            mov r2, r2
$FB3C:    2A            mov r2, r2
$FB3D:    2A            mov r2, r2
$FB3E:    0A            mov r0, sp
$FB3F:    52            mov r0, [r2]
$FB40:    30            add r0, r0
$FB41:    3D            add r3, r1
$FB42:    24            mov r1, r0
$FB43:    F0            fixme: unknown opcode F0
$FB44:    B6 FB 20      mov r2, [$20FB]
$FB47:    52            mov r0, [r2]
$FB48:    31            add r0, r1
$FB49:    3D            add r3, r1
$FB4A:    24            mov r1, r0
$FB4B:    F0            fixme: unknown opcode F0
$FB4C:    B8 FB 20      mov byte ptr [$20FB], low(r0)
$FB4F:    52            mov r0, [r2]
$FB50:    32            add r0, r2
$FB51:    3D            add r3, r1
$FB52:    24            mov r1, r0
$FB53:    F0            fixme: unknown opcode F0
$FB54:    BA FB 20      mov byte ptr [$20FB], low(r0)
$FB57:    52            mov r0, [r2]
$FB58:    33            add r0, r3
$FB59:    3D            add r3, r1
$FB5A:    24            mov r1, r0
$FB5B:    F0            fixme: unknown opcode F0
$FB5C:    BC FB 0A      mov [$0AFB], r0
$FB5F:    53            mov r0, [r3]
$FB60:    50            mov r0, [r0]
$FB61:    3D            add r3, r1
$FB62:    24            mov r1, r0
$FB63:    F0            fixme: unknown opcode F0
$FB64:    BE FB 20      mov [$20FB], r0
$FB67:    5B            mov r2, [r3]
$FB68:    F1            fixme: unknown opcode F1
$FB69:    C2            fixme: unknown opcode C2
$FB6A:    FB            fixme: unknown opcode FB
$FB6B:    F1            fixme: unknown opcode F1
$FB6C:    C3            fixme: unknown opcode C3
$FB6D:    FB            fixme: unknown opcode FB
$FB6E:    F1            fixme: unknown opcode F1
$FB6F:    C4            fixme: unknown opcode C4
$FB70:    FB            fixme: unknown opcode FB
$FB71:    F1            fixme: unknown opcode F1
$FB72:    C5            fixme: unknown opcode C5
$FB73:    FB            fixme: unknown opcode FB
$FB74:    F1            fixme: unknown opcode F1
$FB75:    C6            fixme: unknown opcode C6
$FB76:    FB            fixme: unknown opcode FB
$FB77:    F1            fixme: unknown opcode F1
$FB78:    C7            fixme: unknown opcode C7
$FB79:    FB            fixme: unknown opcode FB
$FB7A:    F1            fixme: unknown opcode F1
$FB7B:    C8            fixme: unknown opcode C8
$FB7C:    FB            fixme: unknown opcode FB
$FB7D:    F1            fixme: unknown opcode F1
$FB7E:    C9            call r0
$FB7F:    FB            fixme: unknown opcode FB
$FB80:    F1            fixme: unknown opcode F1
$FB81:    CA            call r1
$FB82:    FB            fixme: unknown opcode FB
$FB83:    F1            fixme: unknown opcode F1
$FB84:    CB            call r2
$FB85:    FB            fixme: unknown opcode FB
$FB86:    F1            fixme: unknown opcode F1
$FB87:    CC            call r3
$FB88:    FB            fixme: unknown opcode FB
$FB89:    F1            fixme: unknown opcode F1
$FB8A:    CD FB 5D      and r0, $5DFB
$FB8D:    0A            mov r0, sp
$FB8E:    00            trap
$FB8F:    F0            fixme: unknown opcode F0
$FB90:    D6            or r0, r2
$FB91:    FB            fixme: unknown opcode FB
$FB92:    20            mov r0, r0
$FB93:    7C            mov [r3], r0
$FB94:    20            mov r0, r0
$FB95:    F1            fixme: unknown opcode F1
$FB96:    CE FB 20      or r0, $20FB
$FB99:    F1            fixme: unknown opcode F1
$FB9A:    CF FB 20      xor r0, $20FB
$FB9D:    F1            fixme: unknown opcode F1
$FB9E:    D0            and r0, r0
$FB9F:    FB            fixme: unknown opcode FB
$FBA0:    20            mov r0, r0
$FBA1:    F1            fixme: unknown opcode F1
$FBA2:    D1            and r0, r1
$FBA3:    FB            fixme: unknown opcode FB
$FBA4:    20            mov r0, r0
$FBA5:    F1            fixme: unknown opcode F1
$FBA6:    D2            and r0, r2
$FBA7:    FB            fixme: unknown opcode FB
$FBA8:    20            mov r0, r0
$FBA9:    F1            fixme: unknown opcode F1
$FBAA:    D3            and r0, r3
$FBAB:    FB            fixme: unknown opcode FB
$FBAC:    20            mov r0, r0
$FBAD:    F1            fixme: unknown opcode F1
$FBAE:    D4            or r0, r0
$FBAF:    FB            fixme: unknown opcode FB
$FBB0:    20            mov r0, r0
$FBB1:    F1            fixme: unknown opcode F1
$FBB2:    D5            or r0, r1
$FBB3:    FB            fixme: unknown opcode FB
$FBB4:    0A            mov r0, sp
$FBB5:    00            trap
$FBB6:    00            trap
$FBB7:    00            trap
$FBB8:    FF            fixme: unknown opcode FF
$FBB9:    C3            fixme: unknown opcode C3
$FBBA:    7D            mov [r3], r1
$FBBB:    F3            fixme: unknown opcode F3
$FBBC:    F7            fixme: unknown opcode F7
$FBBD:    F1            fixme: unknown opcode F1
$FBBE:    FE            fixme: unknown opcode FE
$FBBF:    FE            fixme: unknown opcode FE
$FBC0:    A0 F0 A1      call.eq $A1F0
$FBC3:    F0            fixme: unknown opcode F0
$FBC4:    00            trap
$FBC5:    00            trap
$FBC6:    00            trap
$FBC7:    00            trap
$FBC8:    00            trap
$FBC9:    00            trap
$FBCA:    00            trap
$FBCB:    00            trap
$FBCC:    00            trap
$FBCD:    00            trap
$FBCE:    00            trap
$FBCF:    00            trap
$FBD0:    00            trap
$FBD1:    00            trap
$FBD2:    00            trap
$FBD3:    00            trap
$FBD4:    00            trap
$FBD5:    00            trap
$FBD6:    C8            fixme: unknown opcode C8
$FBD7:    FB            fixme: unknown opcode FB
$FBD8:    00            trap
$FBD9:    00            trap
$FBDA:    00            trap
$FBDB:    00            trap
$FBDC:    00            trap
$FBDD:    00            trap
$FBDE:    00            trap
$FBDF:    00            trap
$FBE0:    00            trap
$FBE1:    00            trap
$FBE2:    00            trap
$FBE3:    00            trap
$FBE4:    00            trap
$FBE5:    00            trap
$FBE6:    00            trap
$FBE7:    00            trap
$FBE8:    00            trap
$FBE9:    00            trap
$FBEA:    00            trap
$FBEB:    00            trap
$FBEC:    00            trap
$FBED:    00            trap
$FBEE:    00            trap
$FBEF:    00            trap
$FBF0:    00            trap
$FBF1:    00            trap
$FBF2:    00            trap
$FBF3:    00            trap
$FBF4:    00            trap
$FBF5:    00            trap
$FBF6:    00            trap
$FBF7:    00            trap
$FBF8:    00            trap
$FBF9:    00            trap
$FBFA:    00            trap
$FBFB:    00            trap
$FBFC:    00            trap
$FBFD:    00            trap
$FBFE:    00            trap
$FBFF:    00            trap
$FC00:    00            trap
$FC01:    00            trap
$FC02:    00            trap
$FC03:    00            trap
$FC04:    00            trap
$FC05:    00            trap
$FC06:    00            trap
$FC07:    00            trap
$FC08:    00            trap
$FC09:    00            trap
$FC0A:    00            trap
$FC0B:    00            trap
$FC0C:    00            trap
$FC0D:    00            trap
$FC0E:    00            trap
$FC0F:    00            trap
$FC10:    00            trap
$FC11:    00            trap
$FC12:    00            trap
$FC13:    00            trap
$FC14:    00            trap
$FC15:    00            trap
$FC16:    00            trap
$FC17:    00            trap
$FC18:    00            trap
$FC19:    00            trap
$FC1A:    00            trap
$FC1B:    00            trap
$FC1C:    00            trap
$FC1D:    00            trap
$FC1E:    00            trap
$FC1F:    00            trap
$FC20:    00            trap
$FC21:    00            trap
$FC22:    00            trap
$FC23:    00            trap
$FC24:    00            trap
$FC25:    00            trap
$FC26:    00            trap
$FC27:    00            trap
$FC28:    00            trap
$FC29:    00            trap
$FC2A:    00            trap
$FC2B:    00            trap
$FC2C:    00            trap
$FC2D:    00            trap
$FC2E:    00            trap
$FC2F:    00            trap
$FC30:    00            trap
$FC31:    00            trap
$FC32:    00            trap
$FC33:    00            trap
$FC34:    00            trap
$FC35:    00            trap
$FC36:    00            trap
$FC37:    00            trap
$FC38:    00            trap
$FC39:    00            trap
$FC3A:    00            trap
$FC3B:    00            trap
$FC3C:    00            trap
$FC3D:    00            trap
$FC3E:    00            trap
$FC3F:    00            trap
$FC40:    00            trap
$FC41:    00            trap
$FC42:    00            trap
$FC43:    00            trap
$FC44:    00            trap
$FC45:    00            trap
$FC46:    00            trap
$FC47:    00            trap
$FC48:    00            trap
$FC49:    00            trap
$FC4A:    00            trap
$FC4B:    00            trap
$FC4C:    00            trap
$FC4D:    00            trap
$FC4E:    00            trap
$FC4F:    00            trap
$FC50:    00            trap
$FC51:    00            trap
$FC52:    00            trap
$FC53:    00            trap
$FC54:    00            trap
$FC55:    00            trap
$FC56:    00            trap
$FC57:    00            trap
$FC58:    00            trap
$FC59:    00            trap
$FC5A:    00            trap
$FC5B:    00            trap
$FC5C:    00            trap
$FC5D:    00            trap
$FC5E:    00            trap
$FC5F:    00            trap
$FC60:    00            trap
$FC61:    00            trap
$FC62:    00            trap
$FC63:    00            trap
$FC64:    00            trap
$FC65:    00            trap
$FC66:    00            trap
$FC67:    00            trap
$FC68:    00            trap
$FC69:    00            trap
$FC6A:    00            trap
$FC6B:    00            trap
$FC6C:    00            trap
$FC6D:    00            trap
$FC6E:    00            trap
$FC6F:    00            trap
$FC70:    00            trap
$FC71:    00            trap
$FC72:    00            trap
$FC73:    00            trap
$FC74:    00            trap
$FC75:    00            trap
$FC76:    00            trap
$FC77:    00            trap
$FC78:    00            trap
$FC79:    00            trap
$FC7A:    00            trap
$FC7B:    00            trap
$FC7C:    00            trap
$FC7D:    00            trap
$FC7E:    00            trap
$FC7F:    00            trap
$FC80:    00            trap
$FC81:    00            trap
$FC82:    00            trap
$FC83:    00            trap
$FC84:    00            trap
$FC85:    00            trap
$FC86:    00            trap
$FC87:    00            trap
$FC88:    00            trap
$FC89:    00            trap
$FC8A:    00            trap
$FC8B:    00            trap
$FC8C:    00            trap
$FC8D:    00            trap
$FC8E:    00            trap
$FC8F:    00            trap
$FC90:    00            trap
$FC91:    00            trap
$FC92:    00            trap
$FC93:    00            trap
$FC94:    00            trap
$FC95:    00            trap
$FC96:    00            trap
$FC97:    00            trap
$FC98:    00            trap
$FC99:    00            trap
$FC9A:    00            trap
$FC9B:    00            trap
$FC9C:    00            trap
$FC9D:    00            trap
$FC9E:    00            trap
$FC9F:    00            trap
$FCA0:    00            trap
$FCA1:    00            trap
$FCA2:    00            trap
$FCA3:    00            trap
$FCA4:    00            trap
$FCA5:    00            trap
$FCA6:    00            trap
$FCA7:    00            trap
$FCA8:    00            trap
$FCA9:    00            trap
$FCAA:    00            trap
$FCAB:    00            trap
$FCAC:    00            trap
$FCAD:    00            trap
$FCAE:    00            trap
$FCAF:    00            trap
$FCB0:    00            trap
$FCB1:    00            trap
$FCB2:    00            trap
$FCB3:    00            trap
$FCB4:    00            trap
$FCB5:    00            trap
$FCB6:    00            trap
$FCB7:    00            trap
$FCB8:    00            trap
$FCB9:    00            trap
$FCBA:    00            trap
$FCBB:    00            trap
$FCBC:    00            trap
$FCBD:    00            trap
$FCBE:    00            trap
$FCBF:    00            trap
$FCC0:    00            trap
$FCC1:    00            trap
$FCC2:    00            trap
$FCC3:    00            trap
$FCC4:    00            trap
$FCC5:    00            trap
$FCC6:    00            trap
$FCC7:    00            trap
$FCC8:    00            trap
$FCC9:    00            trap
$FCCA:    00            trap
$FCCB:    00            trap
$FCCC:    00            trap
$FCCD:    00            trap
$FCCE:    00            trap
$FCCF:    00            trap
$FCD0:    00            trap
$FCD1:    00            trap
$FCD2:    00            trap
$FCD3:    00            trap
$FCD4:    00            trap
$FCD5:    00            trap
$FCD6:    00            trap
$FCD7:    00            trap
$FCD8:    00            trap
$FCD9:    00            trap
$FCDA:    00            trap
$FCDB:    00            trap
$FCDC:    00            trap
$FCDD:    00            trap
$FCDE:    00            trap
$FCDF:    00            trap
$FCE0:    00            trap
$FCE1:    00            trap
$FCE2:    00            trap
$FCE3:    00            trap
$FCE4:    00            trap
$FCE5:    00            trap
$FCE6:    00            trap
$FCE7:    00            trap
$FCE8:    00            trap
$FCE9:    00            trap
$FCEA:    00            trap
$FCEB:    00            trap
$FCEC:    00            trap
$FCED:    00            trap
$FCEE:    00            trap
$FCEF:    00            trap
$FCF0:    00            trap
$FCF1:    00            trap
$FCF2:    00            trap
$FCF3:    00            trap
$FCF4:    00            trap
$FCF5:    00            trap
$FCF6:    00            trap
$FCF7:    00            trap
$FCF8:    00            trap
$FCF9:    00            trap
$FCFA:    00            trap
$FCFB:    00            trap
$FCFC:    00            trap
$FCFD:    00            trap
$FCFE:    00            trap
$FCFF:    00            trap
$FD00:    00            trap
$FD01:    00            trap
$FD02:    00            trap
$FD03:    00            trap
$FD04:    00            trap
$FD05:    00            trap
$FD06:    00            trap
$FD07:    00            trap
$FD08:    00            trap
$FD09:    00            trap
$FD0A:    00            trap
$FD0B:    00            trap
$FD0C:    00            trap
$FD0D:    00            trap
$FD0E:    00            trap
$FD0F:    00            trap
$FD10:    00            trap
$FD11:    00            trap
$FD12:    00            trap
$FD13:    00            trap
$FD14:    00            trap
$FD15:    00            trap
$FD16:    00            trap
$FD17:    00            trap
$FD18:    00            trap
$FD19:    00            trap
$FD1A:    00            trap
$FD1B:    00            trap
$FD1C:    00            trap
$FD1D:    00            trap
$FD1E:    00            trap
$FD1F:    00            trap
$FD20:    00            trap
$FD21:    00            trap
$FD22:    00            trap
$FD23:    00            trap
$FD24:    00            trap
$FD25:    00            trap
$FD26:    00            trap
$FD27:    00            trap
$FD28:    00            trap
$FD29:    00            trap
$FD2A:    00            trap
$FD2B:    00            trap
$FD2C:    00            trap
$FD2D:    00            trap
$FD2E:    00            trap
$FD2F:    00            trap
$FD30:    00            trap
$FD31:    00            trap
$FD32:    00            trap
$FD33:    00            trap
$FD34:    00            trap
$FD35:    00            trap
$FD36:    00            trap
$FD37:    00            trap
$FD38:    00            trap
$FD39:    00            trap
$FD3A:    00            trap
$FD3B:    00            trap
$FD3C:    00            trap
$FD3D:    00            trap
$FD3E:    00            trap
$FD3F:    00            trap
$FD40:    00            trap
$FD41:    00            trap
$FD42:    00            trap
$FD43:    00            trap
$FD44:    00            trap
$FD45:    00            trap
$FD46:    00            trap
$FD47:    00            trap
$FD48:    00            trap
$FD49:    00            trap
$FD4A:    00            trap
$FD4B:    00            trap
$FD4C:    00            trap
$FD4D:    00            trap
$FD4E:    00            trap
$FD4F:    00            trap
$FD50:    00            trap
$FD51:    00            trap
$FD52:    00            trap
$FD53:    00            trap
$FD54:    00            trap
$FD55:    00            trap
$FD56:    00            trap
$FD57:    00            trap
$FD58:    00            trap
$FD59:    00            trap
$FD5A:    00            trap
$FD5B:    00            trap
$FD5C:    00            trap
$FD5D:    00            trap
$FD5E:    00            trap
$FD5F:    00            trap
$FD60:    00            trap
$FD61:    00            trap
$FD62:    00            trap
$FD63:    00            trap
$FD64:    00            trap
$FD65:    00            trap
$FD66:    00            trap
$FD67:    00            trap
$FD68:    00            trap
$FD69:    00            trap
$FD6A:    00            trap
$FD6B:    00            trap
$FD6C:    00            trap
$FD6D:    00            trap
$FD6E:    00            trap
$FD6F:    00            trap
$FD70:    00            trap
$FD71:    00            trap
$FD72:    00            trap
$FD73:    00            trap
$FD74:    00            trap
$FD75:    00            trap
$FD76:    00            trap
$FD77:    00            trap
$FD78:    00            trap
$FD79:    00            trap
$FD7A:    00            trap
$FD7B:    00            trap
$FD7C:    00            trap
$FD7D:    00            trap
$FD7E:    00            trap
$FD7F:    00            trap
$FD80:    00            trap
$FD81:    00            trap
$FD82:    00            trap
$FD83:    00            trap
$FD84:    00            trap
$FD85:    00            trap
$FD86:    00            trap
$FD87:    00            trap
$FD88:    00            trap
$FD89:    00            trap
$FD8A:    00            trap
$FD8B:    00            trap
$FD8C:    00            trap
$FD8D:    00            trap
$FD8E:    00            trap
$FD8F:    00            trap
$FD90:    00            trap
$FD91:    00            trap
$FD92:    00            trap
$FD93:    00            trap
$FD94:    00            trap
$FD95:    00            trap
$FD96:    00            trap
$FD97:    00            trap
$FD98:    00            trap
$FD99:    00            trap
$FD9A:    00            trap
$FD9B:    00            trap
$FD9C:    00            trap
$FD9D:    00            trap
$FD9E:    00            trap
$FD9F:    00            trap
$FDA0:    00            trap
$FDA1:    00            trap
$FDA2:    00            trap
$FDA3:    00            trap
$FDA4:    00            trap
$FDA5:    00            trap
$FDA6:    00            trap
$FDA7:    00            trap
$FDA8:    00            trap
$FDA9:    00            trap
$FDAA:    00            trap
$FDAB:    00            trap
$FDAC:    00            trap
$FDAD:    00            trap
$FDAE:    00            trap
$FDAF:    00            trap
$FDB0:    00            trap
$FDB1:    00            trap
$FDB2:    00            trap
$FDB3:    00            trap
$FDB4:    00            trap
$FDB5:    00            trap
$FDB6:    00            trap
$FDB7:    00            trap
$FDB8:    00            trap
$FDB9:    00            trap
$FDBA:    00            trap
$FDBB:    00            trap
$FDBC:    00            trap
$FDBD:    00            trap
$FDBE:    00            trap
$FDBF:    00            trap
$FDC0:    00            trap
$FDC1:    00            trap
$FDC2:    00            trap
$FDC3:    00            trap
$FDC4:    00            trap
$FDC5:    00            trap
$FDC6:    00            trap
$FDC7:    00            trap
$FDC8:    00            trap
$FDC9:    00            trap
$FDCA:    00            trap
$FDCB:    00            trap
$FDCC:    00            trap
$FDCD:    00            trap
$FDCE:    00            trap
$FDCF:    00            trap
$FDD0:    00            trap
$FDD1:    00            trap
$FDD2:    00            trap
$FDD3:    00            trap
$FDD4:    00            trap
$FDD5:    00            trap
$FDD6:    00            trap
$FDD7:    00            trap
$FDD8:    00            trap
$FDD9:    00            trap
$FDDA:    00            trap
$FDDB:    00            trap
$FDDC:    00            trap
$FDDD:    00            trap
$FDDE:    00            trap
$FDDF:    00            trap
$FDE0:    00            trap
$FDE1:    00            trap
$FDE2:    00            trap
$FDE3:    00            trap
$FDE4:    00            trap
$FDE5:    00            trap
$FDE6:    00            trap
$FDE7:    00            trap
$FDE8:    00            trap
$FDE9:    00            trap
$FDEA:    00            trap
$FDEB:    00            trap
$FDEC:    00            trap
$FDED:    00            trap
$FDEE:    00            trap
$FDEF:    00            trap
$FDF0:    00            trap
$FDF1:    00            trap
$FDF2:    00            trap
$FDF3:    00            trap
$FDF4:    00            trap
$FDF5:    00            trap
$FDF6:    00            trap
$FDF7:    00            trap
$FDF8:    00            trap
$FDF9:    00            trap
$FDFA:    00            trap
$FDFB:    00            trap
$FDFC:    00            trap
$FDFD:    00            trap
$FDFE:    00            trap
$FDFF:    00            trap
$FE00:    00            trap
$FE01:    00            trap
$FE02:    00            trap
$FE03:    00            trap
$FE04:    00            trap
$FE05:    00            trap
$FE06:    00            trap
$FE07:    00            trap
$FE08:    00            trap
$FE09:    00            trap
$FE0A:    00            trap
$FE0B:    00            trap
$FE0C:    00            trap
$FE0D:    00            trap
$FE0E:    00            trap
$FE0F:    00            trap
$FE10:    00            trap
$FE11:    00            trap
$FE12:    00            trap
$FE13:    00            trap
$FE14:    00            trap
$FE15:    00            trap
$FE16:    00            trap
$FE17:    00            trap
$FE18:    00            trap
$FE19:    00            trap
$FE1A:    00            trap
$FE1B:    00            trap
$FE1C:    00            trap
$FE1D:    00            trap
$FE1E:    00            trap
$FE1F:    00            trap
$FE20:    00            trap
$FE21:    00            trap
$FE22:    00            trap
$FE23:    00            trap
$FE24:    00            trap
$FE25:    00            trap
$FE26:    00            trap
$FE27:    00            trap
$FE28:    00            trap
$FE29:    00            trap
$FE2A:    00            trap
$FE2B:    00            trap
$FE2C:    00            trap
$FE2D:    00            trap
$FE2E:    00            trap
$FE2F:    00            trap
$FE30:    00            trap
$FE31:    00            trap
$FE32:    00            trap
$FE33:    00            trap
$FE34:    00            trap
$FE35:    00            trap
$FE36:    00            trap
$FE37:    00            trap
$FE38:    00            trap
$FE39:    00            trap
$FE3A:    00            trap
$FE3B:    00            trap
$FE3C:    00            trap
$FE3D:    00            trap
$FE3E:    00            trap
$FE3F:    00            trap
$FE40:    00            trap
$FE41:    00            trap
$FE42:    00            trap
$FE43:    00            trap
$FE44:    00            trap
$FE45:    00            trap
$FE46:    00            trap
$FE47:    00            trap
$FE48:    00            trap
$FE49:    00            trap
$FE4A:    00            trap
$FE4B:    00            trap
$FE4C:    00            trap
$FE4D:    00            trap
$FE4E:    00            trap
$FE4F:    00            trap
$FE50:    00            trap
$FE51:    00            trap
$FE52:    00            trap
$FE53:    00            trap
$FE54:    00            trap
$FE55:    00            trap
$FE56:    00            trap
$FE57:    00            trap
$FE58:    00            trap
$FE59:    00            trap
$FE5A:    00            trap
$FE5B:    00            trap
$FE5C:    00            trap
$FE5D:    00            trap
$FE5E:    00            trap
$FE5F:    00            trap
$FE60:    00            trap
$FE61:    00            trap
$FE62:    00            trap
$FE63:    00            trap
$FE64:    00            trap
$FE65:    00            trap
$FE66:    00            trap
$FE67:    00            trap
$FE68:    00            trap
$FE69:    00            trap
$FE6A:    00            trap
$FE6B:    00            trap
$FE6C:    00            trap
$FE6D:    00            trap
$FE6E:    00            trap
$FE6F:    00            trap
$FE70:    00            trap
$FE71:    00            trap
$FE72:    00            trap
$FE73:    00            trap
$FE74:    00            trap
$FE75:    00            trap
$FE76:    00            trap
$FE77:    00            trap
$FE78:    00            trap
$FE79:    00            trap
$FE7A:    00            trap
$FE7B:    00            trap
$FE7C:    00            trap
$FE7D:    00            trap
$FE7E:    00            trap
$FE7F:    00            trap
$FE80:    00            trap
$FE81:    00            trap
$FE82:    00            trap
$FE83:    00            trap
$FE84:    00            trap
$FE85:    00            trap
$FE86:    00            trap
$FE87:    00            trap
$FE88:    00            trap
$FE89:    00            trap
$FE8A:    00            trap
$FE8B:    00            trap
$FE8C:    00            trap
$FE8D:    00            trap
$FE8E:    00            trap
$FE8F:    00            trap
$FE90:    00            trap
$FE91:    00            trap
$FE92:    00            trap
$FE93:    00            trap
$FE94:    00            trap
$FE95:    00            trap
$FE96:    00            trap
$FE97:    00            trap
$FE98:    00            trap
$FE99:    00            trap
$FE9A:    00            trap
$FE9B:    00            trap
$FE9C:    00            trap
$FE9D:    00            trap
$FE9E:    00            trap
$FE9F:    00            trap
$FEA0:    00            trap
$FEA1:    00            trap
$FEA2:    00            trap
$FEA3:    00            trap
$FEA4:    00            trap
$FEA5:    00            trap
$FEA6:    00            trap
$FEA7:    00            trap
$FEA8:    00            trap
$FEA9:    00            trap
$FEAA:    00            trap
$FEAB:    00            trap
$FEAC:    00            trap
$FEAD:    00            trap
$FEAE:    00            trap
$FEAF:    00            trap
$FEB0:    00            trap
$FEB1:    00            trap
$FEB2:    00            trap
$FEB3:    00            trap
$FEB4:    00            trap
$FEB5:    00            trap
$FEB6:    00            trap
$FEB7:    00            trap
$FEB8:    00            trap
$FEB9:    00            trap
$FEBA:    00            trap
$FEBB:    00            trap
$FEBC:    00            trap
$FEBD:    00            trap
$FEBE:    00            trap
$FEBF:    00            trap
$FEC0:    00            trap
$FEC1:    00            trap
$FEC2:    00            trap
$FEC3:    00            trap
$FEC4:    00            trap
$FEC5:    00            trap
$FEC6:    00            trap
$FEC7:    00            trap
$FEC8:    00            trap
$FEC9:    00            trap
$FECA:    00            trap
$FECB:    00            trap
$FECC:    00            trap
$FECD:    00            trap
$FECE:    00            trap
$FECF:    00            trap
$FED0:    00            trap
$FED1:    00            trap
$FED2:    00            trap
$FED3:    00            trap
$FED4:    00            trap
$FED5:    00            trap
$FED6:    00            trap
$FED7:    00            trap
$FED8:    00            trap
$FED9:    00            trap
$FEDA:    00            trap
$FEDB:    00            trap
$FEDC:    00            trap
$FEDD:    00            trap
$FEDE:    00            trap
$FEDF:    00            trap
$FEE0:    00            trap
$FEE1:    00            trap
$FEE2:    00            trap
$FEE3:    00            trap
$FEE4:    00            trap
$FEE5:    00            trap
$FEE6:    00            trap
$FEE7:    00            trap
$FEE8:    00            trap
$FEE9:    00            trap
$FEEA:    00            trap
$FEEB:    00            trap
$FEEC:    00            trap
$FEED:    00            trap
$FEEE:    00            trap
$FEEF:    00            trap
$FEF0:    BD 00 00      mov [$0000], r0
$FEF3:    00            trap
$FEF4:    A9            inc r1
$FEF5:    00            trap
$FEF6:    7E            mov [r3], r2
$FEF7:    00            trap
$FEF8:    96            pop r2
$FEF9:    F4            fixme: unknown opcode F4
$FEFA:    21            mov r0, r1
$FEFB:    00            trap
$FEFC:    F8            fixme: unknown opcode F8
$FEFD:    FE            fixme: unknown opcode FE
$FEFE:    A1 F0 00      call.neq $00F0
$FF01:    00            trap
$FF02:    00            trap
$FF03:    00            trap
$FF04:    00            trap
$FF05:    00            trap
$FF06:    00            trap
$FF07:    00            trap
$FF08:    00            trap
$FF09:    00            trap
$FF0A:    00            trap
$FF0B:    00            trap
$FF0C:    00            trap
$FF0D:    00            trap
$FF0E:    00            trap
$FF0F:    00            trap
$FF10:    00            trap
$FF11:    00            trap
$FF12:    00            trap
$FF13:    00            trap
$FF14:    00            trap
$FF15:    00            trap
$FF16:    00            trap
$FF17:    00            trap
$FF18:    00            trap
$FF19:    00            trap
$FF1A:    00            trap
$FF1B:    00            trap
$FF1C:    00            trap
$FF1D:    00            trap
$FF1E:    00            trap
$FF1F:    00            trap
$FF20:    00            trap
$FF21:    00            trap
$FF22:    00            trap
$FF23:    00            trap
$FF24:    00            trap
$FF25:    00            trap
$FF26:    00            trap
$FF27:    00            trap
$FF28:    00            trap
$FF29:    00            trap
$FF2A:    00            trap
$FF2B:    00            trap
$FF2C:    00            trap
$FF2D:    00            trap
$FF2E:    00            trap
$FF2F:    00            trap
$FF30:    00            trap
$FF31:    00            trap
$FF32:    00            trap
$FF33:    00            trap
$FF34:    00            trap
$FF35:    00            trap
$FF36:    00            trap
$FF37:    00            trap
$FF38:    00            trap
$FF39:    00            trap
$FF3A:    00            trap
$FF3B:    00            trap
$FF3C:    00            trap
$FF3D:    00            trap
$FF3E:    00            trap
$FF3F:    00            trap
$FF40:    00            trap
$FF41:    00            trap
$FF42:    00            trap
$FF43:    00            trap
$FF44:    00            trap
$FF45:    00            trap
$FF46:    00            trap
$FF47:    00            trap
$FF48:    00            trap
$FF49:    00            trap
$FF4A:    00            trap
$FF4B:    00            trap
$FF4C:    00            trap
$FF4D:    00            trap
$FF4E:    00            trap
$FF4F:    00            trap
$FF50:    00            trap
$FF51:    00            trap
$FF52:    00            trap
$FF53:    00            trap
$FF54:    00            trap
$FF55:    00            trap
$FF56:    00            trap
$FF57:    00            trap
$FF58:    00            trap
$FF59:    00            trap
$FF5A:    00            trap
$FF5B:    00            trap
$FF5C:    00            trap
$FF5D:    00            trap
$FF5E:    00            trap
$FF5F:    00            trap
$FF60:    00            trap
$FF61:    00            trap
$FF62:    00            trap
$FF63:    00            trap
$FF64:    00            trap
$FF65:    00            trap
$FF66:    00            trap
$FF67:    00            trap
$FF68:    00            trap
$FF69:    00            trap
$FF6A:    00            trap
$FF6B:    00            trap
$FF6C:    00            trap
$FF6D:    00            trap
$FF6E:    00            trap
$FF6F:    00            trap
$FF70:    00            trap
$FF71:    00            trap
$FF72:    00            trap
$FF73:    00            trap
$FF74:    00            trap
$FF75:    00            trap
$FF76:    00            trap
$FF77:    00            trap
$FF78:    00            trap
$FF79:    00            trap
$FF7A:    00            trap
$FF7B:    00            trap
$FF7C:    00            trap
$FF7D:    00            trap
$FF7E:    00            trap
$FF7F:    00            trap
$FF80:    00            trap
$FF81:    00            trap
$FF82:    00            trap
$FF83:    00            trap
$FF84:    00            trap
$FF85:    00            trap
$FF86:    00            trap
$FF87:    00            trap
$FF88:    00            trap
$FF89:    00            trap
$FF8A:    00            trap
$FF8B:    00            trap
$FF8C:    00            trap
$FF8D:    00            trap
$FF8E:    00            trap
$FF8F:    00            trap
$FF90:    00            trap
$FF91:    00            trap
$FF92:    00            trap
$FF93:    00            trap
$FF94:    00            trap
$FF95:    00            trap
$FF96:    00            trap
$FF97:    00            trap
$FF98:    00            trap
$FF99:    00            trap
$FF9A:    00            trap
$FF9B:    00            trap
$FF9C:    00            trap
$FF9D:    00            trap
$FF9E:    00            trap
$FF9F:    00            trap
$FFA0:    00            trap
$FFA1:    00            trap
$FFA2:    00            trap
$FFA3:    00            trap
$FFA4:    00            trap
$FFA5:    00            trap
$FFA6:    00            trap
$FFA7:    00            trap
$FFA8:    00            trap
$FFA9:    00            trap
$FFAA:    00            trap
$FFAB:    00            trap
$FFAC:    00            trap
$FFAD:    00            trap
$FFAE:    00            trap
$FFAF:    00            trap
$FFB0:    00            trap
$FFB1:    00            trap
$FFB2:    00            trap
$FFB3:    00            trap
$FFB4:    00            trap
$FFB5:    00            trap
$FFB6:    00            trap
$FFB7:    00            trap
$FFB8:    00            trap
$FFB9:    00            trap
$FFBA:    00            trap
$FFBB:    00            trap
$FFBC:    00            trap
$FFBD:    00            trap
$FFBE:    00            trap
$FFBF:    00            trap
$FFC0:    00            trap
$FFC1:    00            trap
$FFC2:    00            trap
$FFC3:    00            trap
$FFC4:    00            trap
$FFC5:    00            trap
$FFC6:    00            trap
$FFC7:    00            trap
$FFC8:    00            trap
$FFC9:    00            trap
$FFCA:    00            trap
$FFCB:    00            trap
$FFCC:    00            trap
$FFCD:    00            trap
$FFCE:    00            trap
$FFCF:    00            trap
$FFD0:    00            trap
$FFD1:    00            trap
$FFD2:    00            trap
$FFD3:    00            trap
$FFD4:    00            trap
$FFD5:    00            trap
$FFD6:    00            trap
$FFD7:    00            trap
$FFD8:    00            trap
$FFD9:    00            trap
$FFDA:    00            trap
$FFDB:    00            trap
$FFDC:    00            trap
$FFDD:    00            trap
$FFDE:    00            trap
$FFDF:    00            trap
$FFE0:    00            trap
$FFE1:    00            trap
$FFE2:    00            trap
$FFE3:    00            trap
$FFE4:    00            trap
$FFE5:    00            trap
$FFE6:    00            trap
$FFE7:    00            trap
$FFE8:    00            trap
$FFE9:    00            trap
$FFEA:    00            trap
$FFEB:    00            trap
$FFEC:    00            trap
$FFED:    00            trap
$FFEE:    00            trap
$FFEF:    00            trap
$FFF0:    98 7E F3      jmp $F37E    # <None>
$FFF3:    00            trap
$FFF4:    00            trap
$FFF5:    00            trap
$FFF6:    00            trap
$FFF7:    00            trap
$FFF8:    00            trap
$FFF9:    00            trap
$FFFA:    00            trap
$FFFB:    00            trap
$FFFC:    00            trap
$FFFD:    00            trap
